
YMF825MIDI_CONTROL.elf:     file format elf32-avr

Sections:
Idx Name          Size      VMA       LMA       File off  Algn
  0 .data         000000ac  00800100  0000395e  000039f2  2**0
                  CONTENTS, ALLOC, LOAD, DATA
  1 .text         0000395e  00000000  00000000  00000094  2**1
                  CONTENTS, ALLOC, LOAD, READONLY, CODE
  2 .bss          00000564  008001ac  008001ac  00003aac  2**8
                  ALLOC
  3 .comment      00000030  00000000  00000000  00003a9e  2**0
                  CONTENTS, READONLY
  4 .debug_aranges 000003b0  00000000  00000000  00003ad0  2**3
                  CONTENTS, READONLY, DEBUGGING
  5 .debug_info   000073df  00000000  00000000  00003e80  2**0
                  CONTENTS, READONLY, DEBUGGING
  6 .debug_abbrev 00001772  00000000  00000000  0000b25f  2**0
                  CONTENTS, READONLY, DEBUGGING
  7 .debug_line   0000a0a3  00000000  00000000  0000c9d1  2**0
                  CONTENTS, READONLY, DEBUGGING
  8 .debug_frame  00000cec  00000000  00000000  00016a74  2**2
                  CONTENTS, READONLY, DEBUGGING
  9 .debug_str    000182d2  00000000  00000000  00017760  2**0
                  CONTENTS, READONLY, DEBUGGING
 10 .debug_loc    00005553  00000000  00000000  0002fa32  2**0
                  CONTENTS, READONLY, DEBUGGING
 11 .debug_ranges 00000e28  00000000  00000000  00034f85  2**0
                  CONTENTS, READONLY, DEBUGGING
 12 .debug_macro  00007cfd  00000000  00000000  00035dad  2**0
                  CONTENTS, READONLY, DEBUGGING

Disassembly of section .text:

00000000 <__vectors>:
       0:	0c 94 46 0a 	jmp	0x148c	; 0x148c <__ctors_end>
       4:	0c 94 62 0a 	jmp	0x14c4	; 0x14c4 <__bad_interrupt>
       8:	0c 94 62 0a 	jmp	0x14c4	; 0x14c4 <__bad_interrupt>
       c:	0c 94 62 0a 	jmp	0x14c4	; 0x14c4 <__bad_interrupt>
      10:	0c 94 62 0a 	jmp	0x14c4	; 0x14c4 <__bad_interrupt>
      14:	0c 94 62 0a 	jmp	0x14c4	; 0x14c4 <__bad_interrupt>
      18:	0c 94 62 0a 	jmp	0x14c4	; 0x14c4 <__bad_interrupt>
      1c:	0c 94 62 0a 	jmp	0x14c4	; 0x14c4 <__bad_interrupt>
      20:	0c 94 62 0a 	jmp	0x14c4	; 0x14c4 <__bad_interrupt>
      24:	0c 94 62 0a 	jmp	0x14c4	; 0x14c4 <__bad_interrupt>
      28:	0c 94 49 1a 	jmp	0x3492	; 0x3492 <__vector_10>
      2c:	0c 94 62 0a 	jmp	0x14c4	; 0x14c4 <__bad_interrupt>
      30:	0c 94 62 0a 	jmp	0x14c4	; 0x14c4 <__bad_interrupt>
      34:	0c 94 62 0a 	jmp	0x14c4	; 0x14c4 <__bad_interrupt>
      38:	0c 94 62 0a 	jmp	0x14c4	; 0x14c4 <__bad_interrupt>
      3c:	0c 94 62 0a 	jmp	0x14c4	; 0x14c4 <__bad_interrupt>
      40:	0c 94 62 0a 	jmp	0x14c4	; 0x14c4 <__bad_interrupt>
      44:	0c 94 62 0a 	jmp	0x14c4	; 0x14c4 <__bad_interrupt>
      48:	0c 94 62 0a 	jmp	0x14c4	; 0x14c4 <__bad_interrupt>
      4c:	0c 94 62 0a 	jmp	0x14c4	; 0x14c4 <__bad_interrupt>
      50:	0c 94 62 0a 	jmp	0x14c4	; 0x14c4 <__bad_interrupt>
      54:	0c 94 62 0a 	jmp	0x14c4	; 0x14c4 <__bad_interrupt>
      58:	0c 94 62 0a 	jmp	0x14c4	; 0x14c4 <__bad_interrupt>
      5c:	0c 94 62 0a 	jmp	0x14c4	; 0x14c4 <__bad_interrupt>
      60:	0c 94 66 0c 	jmp	0x18cc	; 0x18cc <__vector_24>
      64:	0c 94 62 0a 	jmp	0x14c4	; 0x14c4 <__bad_interrupt>
      68:	0c 94 62 0a 	jmp	0x14c4	; 0x14c4 <__bad_interrupt>
      6c:	0c 94 62 0a 	jmp	0x14c4	; 0x14c4 <__bad_interrupt>
      70:	0c 94 62 0a 	jmp	0x14c4	; 0x14c4 <__bad_interrupt>
      74:	0c 94 62 0a 	jmp	0x14c4	; 0x14c4 <__bad_interrupt>
      78:	0c 94 62 0a 	jmp	0x14c4	; 0x14c4 <__bad_interrupt>
      7c:	0c 94 62 0a 	jmp	0x14c4	; 0x14c4 <__bad_interrupt>
      80:	0c 94 62 0a 	jmp	0x14c4	; 0x14c4 <__bad_interrupt>
      84:	0c 94 62 0a 	jmp	0x14c4	; 0x14c4 <__bad_interrupt>
      88:	0c 94 62 0a 	jmp	0x14c4	; 0x14c4 <__bad_interrupt>
      8c:	0c 94 62 0a 	jmp	0x14c4	; 0x14c4 <__bad_interrupt>
      90:	0c 94 62 0a 	jmp	0x14c4	; 0x14c4 <__bad_interrupt>
      94:	0c 94 62 0a 	jmp	0x14c4	; 0x14c4 <__bad_interrupt>
      98:	0c 94 62 0a 	jmp	0x14c4	; 0x14c4 <__bad_interrupt>
      9c:	0c 94 62 0a 	jmp	0x14c4	; 0x14c4 <__bad_interrupt>
      a0:	0c 94 62 0a 	jmp	0x14c4	; 0x14c4 <__bad_interrupt>
      a4:	0c 94 62 0a 	jmp	0x14c4	; 0x14c4 <__bad_interrupt>
      a8:	0c 94 62 0a 	jmp	0x14c4	; 0x14c4 <__bad_interrupt>

000000ac <ProductString>:
      ac:	28 03 4c 00 55 00 46 00 41 00 20 00 44 00 75 00     (.L.U.F.A. .D.u.
      bc:	61 00 6c 00 20 00 4d 00 49 00 44 00 49 00 20 00     a.l. .M.I.D.I. .
      cc:	44 00 65 00 6d 00 6f 00 00 00                       D.e.m.o...

000000d6 <ManufacturerString>:
      d6:	18 03 44 00 65 00 61 00 6e 00 20 00 43 00 61 00     ..D.e.a.n. .C.a.
      e6:	6d 00 65 00 72 00 61 00 00 00                       m.e.r.a...

000000f0 <LanguageString>:
      f0:	04 03 09 04                                         ....

000000f4 <ConfigurationDescriptor>:
      f4:	09 02 85 00 02 01 00 c0 32 09 04 00 00 00 01 01     ........2.......
     104:	00 00 09 24 01 00 01 09 00 01 01 09 04 01 00 02     ...$............
     114:	01 03 00 00 07 24 01 00 01 61 00 06 24 02 01 01     .....$...a..$...
     124:	00 06 24 02 01 02 00 06 24 02 02 03 00 06 24 02     ..$.....$.....$.
     134:	02 04 00 09 24 03 01 05 01 03 01 00 09 24 03 01     ....$........$..
     144:	06 01 04 01 00 09 24 03 02 07 01 01 01 00 09 24     ......$........$
     154:	03 02 08 01 02 01 00 09 05 01 02 40 00 05 00 00     ...........@....
     164:	06 25 01 02 01 02 09 05 82 02 40 00 05 00 00 06     .%........@.....
     174:	25 01 02 05 06                                      %....

00000179 <DeviceDescriptor>:
     179:	12 01 10 01 00 00 00 08 eb 03 6d 20 02 00 01 02     ..........m ....
     189:	00 01                                               ..

0000018b <divtbl>:
	...
     1c7:	00 00 00 01 00 00 00 00 00 00 00 00 00 00 00 00     ................
     1d7:	00 00 00 00 01 01 01 01 01 01 01 01 01 01 01 01     ................
     1e7:	01 01 01 02 00 00 00 00 00 00 00 00 00 00 00 01     ................
     1f7:	01 01 01 01 01 01 01 01 01 02 02 02 02 02 02 02     ................
     207:	02 02 02 03 00 00 00 00 00 00 00 00 01 01 01 01     ................
     217:	01 01 01 01 02 02 02 02 02 02 02 02 03 03 03 03     ................
     227:	03 03 03 04 00 00 00 00 00 00 00 01 01 01 01 01     ................
     237:	01 02 02 02 02 02 02 03 03 03 03 03 03 04 04 04     ................
     247:	04 04 04 05 00 00 00 00 00 00 01 01 01 01 01 02     ................
     257:	02 02 02 02 03 03 03 03 03 04 04 04 04 04 05 05     ................
     267:	05 05 05 06 00 00 00 00 00 01 01 01 01 02 02 02     ................
     277:	02 02 03 03 03 03 04 04 04 04 04 05 05 05 05 06     ................
     287:	06 06 06 07 00 00 00 00 01 01 01 01 02 02 02 02     ................
     297:	03 03 03 03 04 04 04 04 05 05 05 05 06 06 06 06     ................
     2a7:	07 07 07 08 00 00 00 00 01 01 01 02 02 02 02 03     ................
     2b7:	03 03 04 04 04 04 05 05 05 06 06 06 06 07 07 07     ................
     2c7:	08 08 08 09 00 00 00 00 01 01 01 02 02 02 03 03     ................
     2d7:	03 04 04 04 05 05 05 06 06 06 07 07 07 08 08 08     ................
     2e7:	09 09 09 0a 00 00 00 01 01 01 02 02 02 03 03 03     ................
     2f7:	04 04 04 05 05 06 06 06 07 07 07 08 08 08 09 09     ................
     307:	09 0a 0a 0b 00 00 00 01 01 01 02 02 03 03 03 04     ................
     317:	04 05 05 05 06 06 06 07 07 08 08 08 09 09 0a 0a     ................
     327:	0a 0b 0b 0c 00 00 00 01 01 02 02 02 03 03 04 04     ................
     337:	05 05 05 06 06 07 07 07 08 08 09 09 0a 0a 0a 0b     ................
     347:	0b 0c 0c 0d 00 00 00 01 01 02 02 03 03 04 04 04     ................
     357:	05 05 06 06 07 07 08 08 09 09 09 0a 0a 0b 0b 0c     ................
     367:	0c 0d 0d 0e 00 00 00 01 01 02 02 03 03 04 04 05     ................
     377:	05 06 06 07 07 08 08 09 09 0a 0a 0b 0b 0c 0c 0d     ................
     387:	0d 0e 0e 0f 00 00 01 01 02 02 03 03 04 04 05 05     ................
     397:	06 06 07 07 08 08 09 09 0a 0a 0b 0b 0c 0c 0d 0d     ................
     3a7:	0e 0e 0f 10 00 00 01 01 02 02 03 03 04 04 05 06     ................
     3b7:	06 07 07 08 08 09 09 0a 0a 0b 0c 0c 0d 0d 0e 0e     ................
     3c7:	0f 0f 10 11 00 00 01 01 02 02 03 04 04 05 05 06     ................
     3d7:	06 07 08 08 09 09 0a 0b 0b 0c 0c 0d 0d 0e 0f 0f     ................
     3e7:	10 10 11 12 00 00 01 01 02 03 03 04 04 05 06 06     ................
     3f7:	07 07 08 09 09 0a 0b 0b 0c 0c 0d 0e 0e 0f 0f 10     ................
     407:	11 11 12 13 00 00 01 01 02 03 03 04 05 05 06 07     ................
     417:	07 08 09 09 0a 0a 0b 0c 0c 0d 0e 0e 0f 10 10 11     ................
     427:	12 12 13 14 00 00 01 02 02 03 04 04 05 06 06 07     ................
     437:	08 08 09 0a 0a 0b 0c 0c 0d 0e 0e 0f 10 10 11 12     ................
     447:	12 13 14 15 00 00 01 02 02 03 04 04 05 06 07 07     ................
     457:	08 09 09 0a 0b 0c 0c 0d 0e 0e 0f 10 11 11 12 13     ................
     467:	13 14 15 16 00 00 01 02 02 03 04 05 05 06 07 08     ................
     477:	08 09 0a 0b 0b 0c 0d 0e 0e 0f 10 11 11 12 13 14     ................
     487:	14 15 16 17 00 00 01 02 03 03 04 05 06 06 07 08     ................
     497:	09 0a 0a 0b 0c 0d 0d 0e 0f 10 11 11 12 13 14 14     ................
     4a7:	15 16 17 18 00 00 01 02 03 04 04 05 06 07 08 08     ................
     4b7:	09 0a 0b 0c 0c 0d 0e 0f 10 10 11 12 13 14 14 15     ................
     4c7:	16 17 18 19 00 00 01 02 03 04 05 05 06 07 08 09     ................
     4d7:	0a 0a 0b 0c 0d 0e 0f 0f 10 11 12 13 14 14 15 16     ................
     4e7:	17 18 19 1a 00 00 01 02 03 04 05 06 06 07 08 09     ................
     4f7:	0a 0b 0c 0d 0d 0e 0f 10 11 12 13 14 14 15 16 17     ................
     507:	18 19 1a 1b 00 00 01 02 03 04 05 06 07 08 09 09     ................
     517:	0a 0b 0c 0d 0e 0f 10 11 12 12 13 14 15 16 17 18     ................
     527:	19 1a 1b 1c 00 00 01 02 03 04 05 06 07 08 09 0a     ................
     537:	0b 0c 0d 0e 0e 0f 10 11 12 13 14 15 16 17 18 19     ................
     547:	1a 1b 1c 1d 00 00 01 02 03 04 05 06 07 08 09 0a     ................
     557:	0b 0c 0d 0e 0f 10 11 12 13 14 15 16 17 18 19 1a     ................
     567:	1b 1c 1d 1e 00 01 02 03 04 05 06 07 08 09 0a 0b     ................
     577:	0c 0d 0e 0f 10 11 12 13 14 15 16 17 18 19 1a 1b     ................
     587:	1c 1d 1e 1f                                         ....

0000058b <wave825>:
     58b:	79 43 02 67 ff 9d 00 10 40 23 33 e2 73 00 50 00     yC.g....@#3.s.P.
     59b:	12 41 d3 58 01 10 00 23 63 d4 02 01 10 00 79 43     .A.X...#c.....yC
     5ab:	23 22 f5 9e 00 10 00 22 32 ff 72 00 50 00 23 22     #"....."2.r.P.#"
     5bb:	fd 66 01 10 00 13 52 f4 28 01 10 00 79 45 23 42     .f....R.(...yE#B
     5cb:	d6 51 00 40 06 13 61 d7 22 01 10 00 33 43 de 2d     .Q.@..a."...3C.-
     5db:	00 20 00 13 51 df 22 01 20 00 79 45 23 51 fe 68     . ..Q.". .yE#Q.h
     5eb:	45 13 06 23 a3 d3 0a 43 27 00 22 51 c3 5c 10 17     E..#...C'."Q.\..
     5fb:	05 33 a3 d3 0a 44 23 00 79 83 23 a3 b3 6d 30 30     .3...D#.y.#..m00
     60b:	01 22 92 b4 6f 04 30 00 13 44 a1 4d 04 20 01 13     ."..o.0..D.M. ..
     61b:	71 a8 14 31 10 00 79 45 53 c4 fb 8c 44 70 95 12     q..1..yES...Dp..
     62b:	82 ff 12 41 10 00 13 b0 f1 49 44 10 02 13 72 ff     ...A.....ID...r.
     63b:	10 41 10 00 79 46 23 52 e0 01 00 10 24 03 52 f3     .A..yF#R....$.R.
     64b:	53 00 60 18 03 13 f6 72 00 70 20 23 72 ef 10 03     S.`....r.p #r...
     65b:	10 28 79 43 12 61 ff 60 44 10 2d 12 51 f0 74 44     .(yC.a.`D.-.Q.tD
     66b:	10 00 33 73 f2 6d 44 70 20 23 92 f2 20 41 30 00     ..3s.mDp #.. A0.
     67b:	79 45 63 56 ef 56 00 90 12 42 44 de 18 01 10 00     yEcV.V...BD.....
     68b:	63 66 ec 5b 00 b0 28 42 44 ee 18 01 10 00 79 47     cf.[..(BD.....yG
     69b:	33 49 f4 24 44 70 00 23 3b fb 3c 44 40 00 23 43     3I.$Dp.#;.<D@.#C
     6ab:	f4 49 44 20 01 32 44 fe 10 44 10 00 79 45 23 25     .ID .2D..D..yE#%
     6bb:	50 82 00 20 08 33 24 f0 05 01 13 00 23 25 a0 70     P.. .3$.....#%.p
     6cb:	00 90 08 13 12 f0 18 01 17 00 79 45 22 44 c2 5c     ..........yE"D.\
     6db:	41 70 00 23 59 d6 1e 51 40 00 23 34 c2 78 51 80     Ap.#Y..Q@.#4.xQ.
     6eb:	00 32 42 df 1c 31 10 00 79 45 43 47 af a1 00 c0     .2B..1..yECG....
     6fb:	07 42 54 bf 14 01 10 00 63 47 bf 84 00 60 00 53     .BT.....cG...`.S
     70b:	54 df 14 01 10 00 79 45 62 69 fd 62 00 50 02 52     T.....yEbi.b.P.R
     71b:	77 fd 0c 03 10 00 63 66 fa 76 00 50 00 62 76 fe     w.....cf.v.P.bv.
     72b:	02 03 10 00 79 45 32 34 f5 41 30 a0 80 22 33 f2     ....yE24.A0.."3.
     73b:	14 03 10 00 32 34 f5 41 30 73 47 22 33 f2 16 03     ....24.A0sG"3...
     74b:	27 00 79 46 42 4a ec 1a 00 20 0b 32 33 b5 51 00     '.yFBJ... .23.Q.
     75b:	30 08 32 33 d0 28 00 10 00 42 44 c6 18 03 10 00     0.23.(...BD.....
     76b:	79 c2 02 c4 f0 02 30 00 00 02 c5 f0 01 00 10 20     y.....0........ 
     77b:	02 c5 d1 1e 30 31 48 02 c1 f0 1e 30 20 20 79 47     ....01H....0  yG
     78b:	02 a5 e1 0e 50 02 04 02 08 d5 74 00 20 00 02 a5     ....P.....t. ...
     79b:	e1 06 13 13 00 02 a6 e0 06 03 27 00 79 87 02 df     ..........'.y...
     7ab:	f0 25 70 13 04 02 af b1 15 50 10 a8 02 ef f0 24     .%p......P.....$
     7bb:	13 26 00 02 ef f0 24 33 07 88 79 47 02 5f 90 4e     .&....$3..yG._.N
     7cb:	00 30 00 02 27 b2 74 00 70 00 02 5f 80 12 00 10     .0..'.t.p.._....
     7db:	00 02 57 80 12 00 00 28 79 85 03 58 71 62 00 20     ..W....(y..Xqb. 
     7eb:	83 03 6f 50 02 01 10 00 03 5c 63 29 00 10 28 03     ..oP.....\c)..(.
     7fb:	7f 50 01 01 20 00 79 85 02 02 81 54 00 36 8a 02     .P.. .y....T.6..
     80b:	a2 72 09 01 17 00 02 0f 61 48 00 12 88 02 af 70     .r......aH.....p
     81b:	1e 01 23 00 79 84 02 9f f0 b3 07 e0 00 02 8f f0     ..#.y...........
     82b:	a4 11 a0 00 02 8f f0 90 03 10 00 02 8f 60 0e 01     .............`..
     83b:	20 00 79 05 02 0c 70 3c 30 21 64 02 a2 70 2a 11      .y...p<0!d..p*.
     84b:	21 00 02 0f 70 50 10 10 2b 02 af 70 28 31 10 80     !...pP..+..p(1..
     85b:	79 85 13 41 e8 55 00 10 06 32 73 ff 00 01 10 00     y..A.U...2s.....
     86b:	53 55 b4 38 00 30 08 42 94 df 36 03 10 00 79 44     SU.8.0.B..6...yD
     87b:	12 47 f2 6a 44 90 2c 13 83 f5 b6 45 d0 00 13 42     .G.jD.,....E...B
     88b:	f1 5e 45 10 06 22 83 df 10 25 10 00 79 43 13 77     .^E.."...%..yC.w
     89b:	f3 45 45 10 00 12 45 f2 4b 45 50 00 02 72 ff 7d     .EE...E.KEP..r.}
     8ab:	45 30 00 02 82 cf 10 45 10 00 79 c5 22 2a f1 3d     E0.....E..y."*.=
     8bb:	00 10 08 22 92 ff 0e 03 10 00 23 32 f6 41 00 30     ..."......#2.A.0
     8cb:	20 42 84 e6 0e 03 10 00 79 85 63 78 d7 44 00 00      B......y.cx.D..
     8db:	07 32 99 e7 00 03 00 00 32 83 e9 13 00 10 00 33     .2......2......3
     8eb:	a4 b3 00 03 10 00 79 44 03 28 ff 4c 44 07 62 02     ......yD.(.LD.b.
     8fb:	11 c1 3d 44 23 00 02 a2 b1 3c 44 10 00 12 a1 b1     ..=D#....<D.....
     90b:	28 44 20 00 79 84 02 2c b0 21 00 20 1c 02 a5 c1     (D .y..,.!. ....
     91b:	74 00 10 00 02 a5 c1 5c 00 20 40 02 a1 c5 3c 03     t......\. @...<.
     92b:	10 30 79 85 82 72 f0 59 00 00 45 32 93 df 18 01     .0y..r.Y..E2....
     93b:	20 40 82 72 b0 44 00 00 05 72 77 af 34 05 20 30      @.r.D...rw.4. 0
     94b:	79 45 33 83 ba 39 00 10 03 32 83 cb 00 05 10 00     yE3..9...2......
     95b:	32 13 91 1f 00 10 00 32 83 ca 14 05 10 00 79 43     2......2......yC
     96b:	13 32 a1 72 44 10 06 33 64 94 e8 44 c0 00 23 33     .2.rD..3d..D..#3
     97b:	b2 5a 44 10 00 13 81 b2 00 44 20 00 79 43 23 37     .ZD......D .yC#7
     98b:	f1 4e 44 10 05 43 6b c7 54 44 70 00 23 69 f2 5e     .ND..Ck.TDp.#i.^
     99b:	44 20 00 63 82 b6 00 44 10 00 79 43 23 33 c1 76     D .c...D..yC#3.v
     9ab:	45 12 04 33 63 a3 66 45 11 00 23 63 91 66 45 10     E..3c.fE..#c.fE.
     9bb:	00 23 81 b2 00 45 20 00 79 43 23 37 f2 3a 44 10     .#...E .yC#7.:D.
     9cb:	03 63 66 f4 54 44 90 00 23 69 c2 62 44 10 00 f3     .cf.TD..#i.bD...
     9db:	82 ff 0c 44 10 00 79 43 23 37 f1 3a 44 10 02 62     ...D..yC#7.:D..b
     9eb:	75 b2 48 44 d0 00 23 69 92 7a 44 10 00 63 82 f6     u.HD..#i.zD..c..
     9fb:	18 44 10 00 79 83 22 86 e5 38 00 10 05 12 84 e6     .D..y."..8......
     a0b:	9d 00 20 40 12 82 e6 8c 01 10 00 22 82 e9 00 07     .. @......."....
     a1b:	10 00 79 45 72 85 f6 50 44 20 06 72 81 fc 01 44     ..yEr..PD .r...D
     a2b:	20 00 72 73 f6 50 44 10 06 72 82 fc 01 44 10 00      .rs.PD..r...D..
     a3b:	79 85 03 30 60 4a 10 10 62 02 74 62 0c 01 15 00     y..0`J..b.tb....
     a4b:	73 a5 e0 19 00 40 32 72 77 6f 0e 03 11 00 79 85     s....@2rwo....y.
     a5b:	03 30 60 26 00 10 0a 02 76 61 0c 13 10 00 73 76     .0`&....va....sv
     a6b:	e0 21 10 10 32 72 77 6f 0e 03 10 00 79 83 02 66     .!..2rwo....y..f
     a7b:	f0 40 03 10 0c f2 e5 ff 50 43 50 00 02 75 f2 b4     .@......PCP..u..
     a8b:	13 10 00 02 73 61 06 13 30 00 79 83 00 26 f0 64     ....sa..0.y..&.d
     a9b:	01 10 06 f0 e6 ff 54 43 50 88 00 46 f3 6c 13 30     ......TCP..F.l.0
     aab:	00 00 73 61 02 01 20 00 79 c5 03 32 71 5a 10 12     ..sa.. .y..2qZ..
     abb:	a3 02 63 61 08 33 20 00 03 43 70 59 00 14 63 02     ..ca.3 ..CpY..c.
     acb:	63 61 08 53 10 00 79 85 52 bb f9 50 00 10 07 82     ca.S..y.R..P....
     adb:	77 e2 24 07 10 00 62 57 ff 45 00 10 40 52 66 cf     w.$...bW.E..@Rf.
     aeb:	24 07 10 00 79 43 52 88 f4 a4 00 20 06 72 98 b4     $...yCR.... .r..
     afb:	84 00 50 00 32 27 b4 86 00 10 05 23 24 f1 10 44     ..P.2'.....#$..D
     b0b:	10 00 79 43 43 38 f3 11 44 10 03 23 22 ff 84 44     ..yCC8..D..#"..D
     b1b:	07 00 33 37 f0 72 44 10 00 33 34 ff 00 44 00 40     ..37.rD..34..D.@
     b2b:	79 87 00 6a 50 2e 30 11 3a 00 66 c1 60 00 20 20     y..jP.0.:.f.`.  
     b3b:	00 66 61 1e 03 15 00 00 65 61 14 33 23 60 79 87     .fa.....ea.3#`y.
     b4b:	02 5a 60 00 10 13 4b 02 56 c1 5c 30 10 10 02 66     .Z`...K.V.\0...f
     b5b:	50 02 05 15 08 02 65 51 1c 03 17 d8 79 85 02 28     P.....eQ....y..(
     b6b:	91 6c 10 16 00 02 5f 70 1c 03 13 00 03 2b 90 50     .l...._p.....+.P
     b7b:	10 13 20 02 4f 60 01 13 17 00 79 85 02 28 91 4c     .. .O`....y..(.L
     b8b:	10 10 4d 02 56 60 18 03 10 00 02 28 80 28 10 10     ..M.V`.....(.(..
     b9b:	d8 02 47 53 01 13 10 00 79 45 02 00 cf 4c 00 60     ..GS....yE...L.`
     bab:	3d 02 53 66 5e 03 40 00 02 3f 70 79 00 10 40 02     =.Sf^.@..?py..@.
     bbb:	5f 50 00 03 20 00 79 85 03 00 cf 50 30 50 3f 02     _P.. .y....P0P?.
     bcb:	53 76 52 03 40 00 02 47 73 6a 10 10 50 02 51 90     SvR.@..Gsj..P.Q.
     bdb:	00 05 10 00 79 85 02 40 af 58 00 10 00 02 5f 71     ....y..@.X...._q
     beb:	22 03 10 00 02 4f 90 69 10 10 48 02 5f 70 02 13     "....O.i..H._p..
     bfb:	30 00 79 87 43 64 f6 00 30 40 45 32 35 c1 00 00     0.y.Cd..0@E25...
     c0b:	10 30 62 67 c0 00 03 10 30 72 67 b0 00 03 00 30     .0bg....0rg....0
     c1b:	79 43 02 58 81 50 01 10 0e 02 58 a4 5e 01 30 00     yC.X.P....X.^.0.
     c2b:	02 67 71 6a 00 10 00 02 8f 90 18 11 10 00 79 43     .gqj..........yC
     c3b:	02 76 71 70 01 10 47 02 58 94 3e 01 10 00 02 77     .vqp..G.X.>....w
     c4b:	61 6a 01 10 08 02 8f 80 14 03 10 00 79 43 02 65     aj..........yC.e
     c5b:	62 88 01 10 47 02 b8 c4 62 01 10 08 02 97 93 46     b...G...b......F
     c6b:	01 10 08 02 8f 70 00 03 20 00 79 45 02 70 75 68     .....p.. .yE.puh
     c7b:	10 30 50 02 9d 94 00 01 00 10 02 69 71 4c 11 50     .0P........iqL.P
     c8b:	88 02 97 82 00 01 10 10 79 45 02 09 70 43 00 12     ........yE..pC..
     c9b:	40 02 7e 90 06 01 17 00 02 29 61 5a 30 16 04 02     @.~......)aZ0...
     cab:	7e a0 06 01 13 40 79 45 02 26 81 58 44 17 06 02     ~....@yE.&.XD...
     cbb:	8f 90 20 40 17 00 02 57 71 58 41 10 66 02 88 90     .. @...WqXA.f...
     ccb:	1c 41 10 00 79 45 02 86 72 40 44 17 06 02 af 90     .A..yE..r@D.....
     cdb:	28 44 17 00 02 86 72 40 41 10 06 02 a8 90 28 41     (D....r@A.....(A
     ceb:	10 00 79 43 02 43 61 70 01 10 06 02 57 97 9c 01     ..yC.Cap....W...
     cfb:	60 08 32 35 7b 8c 01 10 40 02 7f f0 10 03 10 00     `.25{...@.......
     d0b:	79 43 63 69 f3 74 10 30 00 02 62 80 68 00 10 00     yCci.t.0..b.h...
     d1b:	02 05 80 31 10 10 08 02 86 81 0c 03 10 00 79 45     ...1..........yE
     d2b:	03 03 90 2a 44 10 0c 02 92 80 24 41 10 00 03 03     ...*D.....$A....
     d3b:	90 36 44 10 4c 02 92 90 54 41 10 08 79 45 03 03     .6D.L...TA..yE..
     d4b:	70 16 44 10 0b 02 92 70 3c 43 10 40 03 03 70 22     p.D....p<C.@..p"
     d5b:	44 10 4b 02 92 70 36 43 10 00 79 45 03 53 70 4a     D.K..p6C..yE.SpJ
     d6b:	00 10 06 03 82 72 18 03 20 00 03 15 70 39 10 20     .....r.. ...p9. 
     d7b:	10 03 84 71 14 05 10 00 79 85 02 40 a0 7a 03 10     ...q....y..@.z..
     d8b:	28 12 91 90 24 03 30 00 02 40 b2 60 23 10 00 02     (...$.0..@.`#...
     d9b:	a0 a0 38 03 20 00 79 45 02 40 a0 8a 03 10 28 12     ..8. .yE.@....(.
     dab:	91 91 2c 03 30 00 02 40 b2 60 23 10 00 12 a0 a1     ..,.0..@.`#.....
     dbb:	2c 03 20 00 79 85 03 07 c1 62 00 10 08 03 81 71     ,. .y....b.....q
     dcb:	02 11 30 48 03 07 c1 62 00 10 08 03 81 71 0c 11     ..0H...b.....q..
     ddb:	31 48 79 45 03 12 71 96 11 20 07 02 82 81 0c 11     1HyE..q.. ......
     deb:	10 00 03 12 51 69 11 40 00 02 82 71 0c 00 10 00     ....Qi.@...q....
     dfb:	79 85 02 7c a1 30 00 50 17 02 87 9f 9c 13 10 00     y..|.0.P........
     e0b:	02 75 81 78 10 10 08 02 a5 80 18 01 10 00 79 45     .u.x..........yE
     e1b:	02 1a d1 1c 10 30 07 02 b8 73 94 01 30 00 02 98     .....0...s..0...
     e2b:	e0 9c 31 10 07 02 a5 60 04 11 10 80 79 85 72 a6     ..1....`....y.r.
     e3b:	90 e8 35 20 1f 02 a5 80 10 15 10 40 62 69 a9 3c     ..5 .......@bi.<
     e4b:	01 70 c0 02 a5 80 90 35 10 00 79 85 02 60 a0 01     .p.....5..y..`..
     e5b:	20 d0 07 12 aa b0 8c 21 a0 18 02 4f 80 b0 15 20      ......!...O... 
     e6b:	00 02 90 80 14 25 10 00 79 45 03 7c c1 30 00 50     .....%..yE.|.0.P
     e7b:	57 02 97 76 6c 01 10 00 02 88 73 2f 30 20 40 02     W..vl.....s/0 @.
     e8b:	85 70 04 05 10 00 79 45 02 5c a1 18 00 50 17 02     .p....yE.\...P..
     e9b:	97 65 5c 31 10 40 02 38 a3 09 50 00 90 02 95 60     .e\1.@.8..P....`
     eab:	04 05 10 00 79 42 02 6a 60 14 15 10 00 02 78 80     ....yB.j`.....x.
     ebb:	14 55 10 00 92 7a 60 b0 55 10 88 02 78 60 14 55     .U...z`.U...x`.U
     ecb:	17 40 79 85 72 86 80 f1 15 20 1f 02 95 80 00 05     .@y.r.... ......
     edb:	10 00 62 69 a9 3c 01 10 c0 02 a5 70 68 15 10 40     ..bi.<.....ph..@
     eeb:	79 85 02 7f f4 bb 00 10 40 02 af a0 0e 03 10 40     y.......@......@
     efb:	02 2f f3 9b 10 20 41 02 af a0 0e 01 10 40 79 45     ./... A......@yE
     f0b:	02 70 f0 68 41 17 07 02 7f d0 28 41 17 40 02 3f     .p.hA.....(A.@.?
     f1b:	f0 51 41 10 a7 02 8f e0 28 41 10 40 79 85 02 74     .QA.....(A.@y..t
     f2b:	c8 00 30 40 47 02 66 c7 51 54 40 40 02 56 85 0d     ..0@G.f.QT@@.V..
     f3b:	01 20 00 02 84 61 08 30 10 80 79 45 02 27 76 11     . ...a.0..yE.'v.
     f4b:	15 14 40 02 86 f0 2c 15 10 40 02 27 76 0d 15 11     ..@...,..@.'v...
     f5b:	40 02 86 f0 2c 15 12 40 79 45 02 62 92 22 45 14     @...,..@yE.b."E.
     f6b:	08 02 81 92 38 15 20 60 02 62 92 2a 45 11 08 02     ....8. `.b.*E...
     f7b:	81 92 38 15 21 60 79 45 02 00 4f 34 00 70 30 02     ..8.!`yE..O4.p0.
     f8b:	83 76 4c 01 20 00 02 9f 70 71 30 10 40 02 8f 70     .vL. ...pq0.@..p
     f9b:	08 03 10 00 79 47 12 81 c1 54 45 10 c0 12 61 c2     ....yG...TE...a.
     fab:	3c 45 11 00 02 80 c0 68 45 24 00 12 81 c1 18 45     <E.....hE$.....E
     fbb:	31 80 79 45 02 32 b0 58 00 10 08 02 92 a0 44 03     1.yE.2.X......D.
     fcb:	10 80 42 43 c5 2e 00 10 05 02 93 d6 30 00 10 00     ..BC........0...
     fdb:	79 45 31 3f f0 98 44 70 0d 40 47 f0 2e 44 50 00     yE1?..Dp.@G..DP.
     feb:	00 11 60 62 03 17 0e 00 51 81 02 03 10 00 79 45     ..`b....Q.....yE
     ffb:	02 50 a0 a0 01 11 07 02 40 30 08 05 10 00 02 30     .P......@0.....0
    100b:	a0 bc 01 13 07 02 40 30 08 05 12 00 79 45 00 45     ......@0....yE.E
    101b:	61 88 05 17 18 00 65 a1 0a 05 26 00 00 33 61 88     a.....e...&..3a.
    102b:	05 10 dc 00 53 90 02 05 12 40 79 45 00 00 af 84     ....S....@yE....
    103b:	45 17 42 00 73 43 5a 05 80 00 00 33 70 85 05 10     E.B.sCZ....3p...
    104b:	06 00 5f 60 00 05 23 00 79 45 02 31 24 aa 15 70     .._`..#.yE.1$..p
    105b:	04 02 52 63 00 11 10 00 02 31 24 aa 15 71 04 02     ..Rc.....1$..q..
    106b:	52 63 00 11 12 00 79 45 03 32 f0 5e 00 10 56 02     Rc....yE.2.^..V.
    107b:	46 50 0e 01 15 00 03 36 f3 1d 00 10 02 02 47 50     FP.....6......GP
    108b:	11 03 11 00 79 45 00 31 41 94 44 15 06 00 52 60     ....yE.1A.D...R`
    109b:	02 01 17 00 00 45 c1 78 44 13 05 00 52 80 02 03     .....E.xD...R...
    10ab:	10 00 79 45 02 38 40 78 10 15 00 02 48 30 02 03     ..yE.8@x....H0..
    10bb:	13 00 02 41 30 8a 00 22 00 02 52 70 02 03 17 00     ...A0.."..Rp....
    10cb:	79 45 03 68 f8 0b 55 a0 01 13 25 80 00 75 10 80     yE.h..U...%..u..
    10db:	03 68 f8 0b 45 a2 01 13 25 80 00 55 13 80 79 85     .h..E...%..U..y.
    10eb:	02 33 63 4a 10 30 03 02 42 40 25 01 30 00 02 33     .3cJ.0..B@%.0..3
    10fb:	63 40 00 10 85 02 41 41 0e 03 10 00 79 45 12 58     c@....AA....yE.X
    110b:	f4 51 45 60 05 22 42 c7 24 44 10 00 12 58 f4 51     .QE`."B.$D...X.Q
    111b:	45 e2 05 22 42 c7 24 44 12 00 79 85 22 43 6f 55     E.."B.$D..y."CoU
    112b:	00 10 a4 02 43 f3 00 03 10 00 02 43 cf 41 00 23     ....C......C.A.#
    113b:	a4 52 46 93 30 03 27 00 79 42 12 41 f5 1e 15 13     .RF.0.'.yB.A....
    114b:	58 52 42 ff 1c 15 13 48 12 41 f5 1e 15 11 58 52     XRB....H.A....XR
    115b:	42 ff 1c 15 11 48 79 45 00 11 12 4a 47 37 6c 00     B....HyE...JG7l.
    116b:	41 21 26 10 30 00 00 21 20 50 45 10 04 00 31 30     A!&.0..! PE...10
    117b:	0e 45 14 00 79 85 02 03 45 88 00 20 00 02 c2 a0     .E..y...E.. ....
    118b:	3a 03 10 00 02 23 32 8c 30 10 80 02 3f a0 00 03     :....#2.0...?...
    119b:	10 00 79 45 02 33 58 65 11 20 0a 12 41 62 18 11     ..yE.3Xe. ..Ab..
    11ab:	17 20 02 33 58 65 11 23 0a 12 41 62 18 11 13 20     . .3Xe.#..Ab... 
    11bb:	79 45 32 22 d5 2a 45 20 03 62 42 ff 20 45 70 48     yE2".*E .bB. EpH
    11cb:	32 22 d5 0e 47 11 44 62 42 ff 20 45 41 88 79 85     2"..G.DbB. EA.y.
    11db:	23 13 d1 28 00 10 20 33 53 de 02 03 30 00 42 27     #..(.. 3S...0.B'
    11eb:	f1 3c 01 60 08 82 87 fe 02 03 10 08 79 43 10 31     .<.`........yC.1
    11fb:	f2 68 44 10 44 50 6a f7 50 45 30 00 30 38 f3 60     .hD.DPj.PE0.08.`
    120b:	44 50 80 41 44 ff 04 45 30 40 79 43 50 57 f2 52     DP.AD..E0@yCPW.R
    121b:	00 30 46 80 89 f4 56 00 50 80 20 32 ff a8 00 10     .0F...V.P. 2....
    122b:	05 21 22 ff 0c 44 10 00 79 45 52 6a fa 21 45 43     .!"..D..yERj.!EC
    123b:	26 32 52 c0 20 45 10 00 52 68 fa 39 45 52 06 43     &2R. E..Rh.9ER.C
    124b:	42 c0 20 45 14 00 79 45 00 c9 b1 42 44 10 49 00     B. E..yE...BD.I.
    125b:	df 70 2c 44 31 40 00 99 a3 00 44 10 00 00 d6 80     .p,D1@....D.....
    126b:	28 44 40 08 79 85 03 39 81 1e 00 10 0a 02 76 62     (D@.y..9......vb
    127b:	00 41 10 00 73 76 c0 25 00 20 20 72 83 9e 66 05     .A..sv.%.  r..f.
    128b:	10 00 79 45 02 40 a0 42 03 10 28 12 91 90 34 03     ..yE.@.B..(...4.
    129b:	60 00 02 40 b2 60 23 10 00 02 a0 a0 3c 03 20 00     `..@.`#.....<. .
    12ab:	79 45 30 46 f5 41 44 e0 03 70 66 ce 2e 44 20 00     yE0F.AD..pf..D .
    12bb:	20 26 c5 78 44 77 08 40 55 fd 04 54 60 00 79 45      &.xDw.@U..T`.yE
    12cb:	40 4a e2 5c 44 70 01 60 67 f1 20 44 50 00 60 49     @J.\Dp.`g. DP.`I
    12db:	e2 84 44 a7 00 60 67 f7 10 44 20 00 79 47 43 54     ..D..`g..D .yGCT
    12eb:	42 00 45 20 80 32 46 60 58 45 20 00 43 44 e2 00     B.E .2F`XE .CD..
    12fb:	45 20 05 43 44 f2 00 00 03 10 79 45 91 9a f2 86     E .CD.....yE....
    130b:	44 51 05 71 7a f2 00 44 23 00 a0 8a f2 70 44 a3     DQ.qz..D#....pD.
    131b:	00 70 7a f2 00 44 20 00 79 44 42 3b f5 60 00 00     .pz..D .yDB;.`..
    132b:	27 a2 3c f1 4c 00 40 00 42 3c f4 2c 01 30 00 52     '.<.L.@.B<.,.0.R
    133b:	5e f0 00 05 00 00 79 45 82 89 f5 3a 44 10 27 52     ^.....yE...:D.'R
    134b:	53 fe 00 44 00 00 43 43 f5 32 44 00 08 43 44 fe     S..D..CC.2D..CD.
    135b:	00 44 00 00 79 c5 81 ab e2 00 04 07 62 01 43 cf     .D..y.......b.C.
    136b:	00 14 00 00 00 44 f7 00 44 00 c0 00 77 ff 00 45     .....D..D...w..E
    137b:	00 b0 79 45 02 0f 40 00 45 e0 07 f2 ff 2f 18 25     ..yE..@.E..../.%
    138b:	90 40 02 0f 40 00 45 e0 07 f2 ff 2f 18 45 e0 18     .@..@.E..../.E..
    139b:	79 45 42 68 f2 02 45 60 47 42 a6 88 3e 45 30 10     yEBh..E`GB..>E0.
    13ab:	22 66 f2 00 45 60 51 82 a8 88 02 45 60 10 79 45     "f..E`Q....E`.yE
    13bb:	02 5c a1 38 00 50 17 82 98 7f 14 11 10 00 02 5c     .\.8.P.........\
    13cb:	a1 24 00 80 07 72 98 8f 30 11 10 00 79 03 02 0f     .$...r..0...y...
    13db:	f0 10 00 30 07 22 22 ff 54 10 00 20 42 40 ff 30     ...0."".T.. B@.0
    13eb:	00 00 08 42 42 1f 00 00 00 00 79 85 33 37 3a 56     ...BB.....y.37:V
    13fb:	55 50 00 73 76 53 01 55 a0 00 33 37 3a 56 55 50     UP.svS.U..37:VUP
    140b:	00 43 46 53 01 75 a7 00 79 45 03 02 b6 71 45 50     .CFS.u..yE...qEP
    141b:	15 33 34 f1 0c 45 40 00 03 02 b6 71 45 50 15 33     .34..E@....qEP.3
    142b:	34 f1 3c 45 47 00 79 c5 02 06 f0 04 55 f0 75 02     4.<EG.y.....U.u.
    143b:	50 20 10 55 00 00 02 00 f0 60 44 00 70 02 50 20     P .U.....`D.p.P 
    144b:	2c 44 00 00 79 45 02 1c f0 00 00 00 c7 02 52 40     ,D..yE........R@
    145b:	20 00 00 00 02 10 6f 00 30 90 c7 72 70 3f 1c 00      .....o.0..rp?..
    146b:	30 00 79 45 02 03 ff 2c 01 50 07 82 86 fb 10 11     0.yE...,.P......
    147b:	f0 30 02 02 ff 08 11 50 0f 82 86 fb 68 11 50 30     .0.....P....h.P0
	...

0000148c <__ctors_end>:
    148c:	11 24       	eor	r1, r1
    148e:	1f be       	out	0x3f, r1	; 63
    1490:	cf ef       	ldi	r28, 0xFF	; 255
    1492:	da e0       	ldi	r29, 0x0A	; 10
    1494:	de bf       	out	0x3e, r29	; 62
    1496:	cd bf       	out	0x3d, r28	; 61

00001498 <__do_copy_data>:
    1498:	11 e0       	ldi	r17, 0x01	; 1
    149a:	a0 e0       	ldi	r26, 0x00	; 0
    149c:	b1 e0       	ldi	r27, 0x01	; 1
    149e:	ee e5       	ldi	r30, 0x5E	; 94
    14a0:	f9 e3       	ldi	r31, 0x39	; 57
    14a2:	02 c0       	rjmp	.+4      	; 0x14a8 <__do_copy_data+0x10>
    14a4:	05 90       	lpm	r0, Z+
    14a6:	0d 92       	st	X+, r0
    14a8:	ac 3a       	cpi	r26, 0xAC	; 172
    14aa:	b1 07       	cpc	r27, r17
    14ac:	d9 f7       	brne	.-10     	; 0x14a4 <__do_copy_data+0xc>

000014ae <__do_clear_bss>:
    14ae:	27 e0       	ldi	r18, 0x07	; 7
    14b0:	ac ea       	ldi	r26, 0xAC	; 172
    14b2:	b1 e0       	ldi	r27, 0x01	; 1
    14b4:	01 c0       	rjmp	.+2      	; 0x14b8 <.do_clear_bss_start>

000014b6 <.do_clear_bss_loop>:
    14b6:	1d 92       	st	X+, r1

000014b8 <.do_clear_bss_start>:
    14b8:	a0 31       	cpi	r26, 0x10	; 16
    14ba:	b2 07       	cpc	r27, r18
    14bc:	e1 f7       	brne	.-8      	; 0x14b6 <.do_clear_bss_loop>
    14be:	43 d5       	rcall	.+2694   	; 0x1f46 <main>
    14c0:	0c 94 ad 1c 	jmp	0x395a	; 0x395a <_exit>

000014c4 <__bad_interrupt>:
    14c4:	0c 94 00 00 	jmp	0	; 0x0 <__vectors>

000014c8 <expon_tbl>:
    14c8:	68 3c       	cpi	r22, 0xC8	; 200
    14ca:	ce 43       	sbci	r28, 0x3E	; 62
    14cc:	e0 41       	sbci	r30, 0x10	; 16
    14ce:	ee 40       	sbci	r30, 0x0E	; 14
    14d0:	76 40       	sbci	r23, 0x06	; 6
    14d2:	3b 40       	sbci	r19, 0x0B	; 11
    14d4:	1d 40       	sbci	r17, 0x0D	; 13
    14d6:	0e 40       	sbci	r16, 0x0E	; 14
    14d8:	07 40       	sbci	r16, 0x07	; 7
    14da:	03 40       	sbci	r16, 0x03	; 3
    14dc:	01 40       	sbci	r16, 0x01	; 1
    14de:	04 39       	cpi	r16, 0x94	; 148
    14e0:	d6 47       	sbci	r29, 0x76	; 118
    14e2:	ce 43       	sbci	r28, 0x3E	; 62
    14e4:	e0 41       	sbci	r30, 0x10	; 16
    14e6:	ee 40       	sbci	r30, 0x0E	; 14
    14e8:	76 40       	sbci	r23, 0x06	; 6
    14ea:	3b 40       	sbci	r19, 0x0B	; 11
    14ec:	1d 40       	sbci	r17, 0x0D	; 13
    14ee:	0e 40       	sbci	r16, 0x0E	; 14
    14f0:	07 40       	sbci	r16, 0x07	; 7
    14f2:	03 40       	sbci	r16, 0x03	; 3
    14f4:	d1 35       	cpi	r29, 0x51	; 81
    14f6:	1b 4c       	sbci	r17, 0xCB	; 203
    14f8:	ca 45       	sbci	r28, 0x5A	; 90
    14fa:	d5 42       	sbci	r29, 0x25	; 37
    14fc:	66 41       	sbci	r22, 0x16	; 22
    14fe:	b2 40       	sbci	r27, 0x02	; 2
    1500:	58 40       	sbci	r21, 0x08	; 8
    1502:	2c 40       	sbci	r18, 0x0C	; 12
    1504:	16 40       	sbci	r17, 0x06	; 6
    1506:	0b 40       	sbci	r16, 0x0B	; 11
    1508:	05 40       	sbci	r16, 0x05	; 5
    150a:	cb 32       	cpi	r28, 0x2B	; 43
    150c:	a2 50       	subi	r26, 0x02	; 2
    150e:	d6 47       	sbci	r29, 0x76	; 118
    1510:	ce 43       	sbci	r28, 0x3E	; 62
    1512:	e0 41       	sbci	r30, 0x10	; 16
    1514:	ee 40       	sbci	r30, 0x0E	; 14
    1516:	76 40       	sbci	r23, 0x06	; 6
    1518:	3b 40       	sbci	r19, 0x0B	; 11
    151a:	1d 40       	sbci	r17, 0x0D	; 13
    151c:	0e 40       	sbci	r16, 0x0E	; 14
    151e:	07 40       	sbci	r16, 0x07	; 7
    1520:	f2 2f       	mov	r31, r18
    1522:	6e 55       	subi	r22, 0x5E	; 94
    1524:	f1 49       	sbci	r31, 0x91	; 145
    1526:	ca 44       	sbci	r28, 0x4A	; 74
    1528:	5a 42       	sbci	r21, 0x2A	; 42
    152a:	2a 41       	sbci	r18, 0x1A	; 26
    152c:	94 40       	sbci	r25, 0x04	; 4
    152e:	4a 40       	sbci	r20, 0x0A	; 10
    1530:	25 40       	sbci	r18, 0x05	; 5
    1532:	12 40       	sbci	r17, 0x02	; 2
    1534:	09 40       	sbci	r16, 0x09	; 9
    1536:	41 2d       	mov	r20, r1
    1538:	82 5a       	subi	r24, 0xA2	; 162
    153a:	1b 4c       	sbci	r17, 0xCB	; 203
    153c:	ca 45       	sbci	r28, 0x5A	; 90
    153e:	d5 42       	sbci	r29, 0x25	; 37
    1540:	66 41       	sbci	r22, 0x16	; 22
    1542:	b2 40       	sbci	r27, 0x02	; 2
    1544:	58 40       	sbci	r21, 0x08	; 8
    1546:	2c 40       	sbci	r18, 0x0C	; 12
    1548:	16 40       	sbci	r17, 0x06	; 6
    154a:	0b 40       	sbci	r16, 0x0B	; 11
    154c:	b7 2a       	or	r11, r23
    154e:	e4 5f       	subi	r30, 0xF4	; 244
    1550:	56 4e       	sbci	r21, 0xE6	; 230
    1552:	ce 46       	sbci	r28, 0x6E	; 110
    1554:	51 43       	sbci	r21, 0x31	; 49
    1556:	a3 41       	sbci	r26, 0x13	; 19
    1558:	d0 40       	sbci	r29, 0x00	; 0
    155a:	67 40       	sbci	r22, 0x07	; 7
    155c:	33 40       	sbci	r19, 0x03	; 3
    155e:	19 40       	sbci	r17, 0x09	; 9
    1560:	0c 40       	sbci	r16, 0x0C	; 12
    1562:	51 28       	or	r5, r1
    1564:	97 65       	ori	r25, 0x57	; 87
    1566:	a2 50       	subi	r26, 0x02	; 2
    1568:	d6 47       	sbci	r29, 0x76	; 118
    156a:	ce 43       	sbci	r28, 0x3E	; 62
    156c:	e0 41       	sbci	r30, 0x10	; 16
    156e:	ee 40       	sbci	r30, 0x0E	; 14
    1570:	76 40       	sbci	r23, 0x06	; 6
    1572:	3b 40       	sbci	r19, 0x0B	; 11
    1574:	1d 40       	sbci	r17, 0x0D	; 13
    1576:	0e 40       	sbci	r16, 0x0E	; 14
    1578:	0d 26       	eor	r0, r29
    157a:	a2 6b       	ori	r26, 0xB2	; 178
    157c:	ff 52       	subi	r31, 0x2F	; 47
    157e:	e1 48       	sbci	r30, 0x81	; 129
    1580:	4c 44       	sbci	r20, 0x4C	; 76
    1582:	1d 42       	sbci	r17, 0x2D	; 45
    1584:	0c 41       	sbci	r16, 0x1C	; 28
    1586:	85 40       	sbci	r24, 0x05	; 5
    1588:	42 40       	sbci	r20, 0x02	; 2
    158a:	21 40       	sbci	r18, 0x01	; 1
    158c:	10 40       	sbci	r17, 0x00	; 0
    158e:	eb 23       	and	r30, r27
    1590:	08 72       	andi	r16, 0x28	; 40
    1592:	6e 55       	subi	r22, 0x5E	; 94
    1594:	f1 49       	sbci	r31, 0x91	; 145
    1596:	ca 44       	sbci	r28, 0x4A	; 74
    1598:	5a 42       	sbci	r21, 0x2A	; 42
    159a:	2a 41       	sbci	r18, 0x1A	; 26
    159c:	94 40       	sbci	r25, 0x04	; 4
    159e:	4a 40       	sbci	r20, 0x0A	; 10
    15a0:	25 40       	sbci	r18, 0x05	; 5
    15a2:	12 40       	sbci	r17, 0x02	; 2
    15a4:	e7 21       	and	r30, r7
    15a6:	d0 78       	andi	r29, 0x80	; 128
    15a8:	ee 57       	subi	r30, 0x7E	; 126
    15aa:	04 4b       	sbci	r16, 0xB4	; 180
    15ac:	4a 45       	sbci	r20, 0x5A	; 90
    15ae:	97 42       	sbci	r25, 0x27	; 39
    15b0:	48 41       	sbci	r20, 0x18	; 24
    15b2:	a3 40       	sbci	r26, 0x03	; 3
    15b4:	51 40       	sbci	r21, 0x01	; 1
    15b6:	28 40       	sbci	r18, 0x08	; 8
    15b8:	14 40       	sbci	r17, 0x04	; 4
    15ba:	00 20       	and	r0, r0
    15bc:	00 80       	ld	r0, Z
    15be:	82 5a       	subi	r24, 0xA2	; 162
    15c0:	1b 4c       	sbci	r17, 0xCB	; 203
    15c2:	ca 45       	sbci	r28, 0x5A	; 90
    15c4:	d5 42       	sbci	r29, 0x25	; 37
    15c6:	66 41       	sbci	r22, 0x16	; 22
    15c8:	b2 40       	sbci	r27, 0x02	; 2
    15ca:	58 40       	sbci	r21, 0x08	; 8
    15cc:	2c 40       	sbci	r18, 0x0C	; 12
    15ce:	16 40       	sbci	r17, 0x06	; 6
    15d0:	34 1e       	adc	r3, r20
    15d2:	9c 87       	std	Y+12, r25	; 0x0c
    15d4:	29 5d       	subi	r18, 0xD9	; 217
    15d6:	37 4d       	sbci	r19, 0xD7	; 215
    15d8:	4c 46       	sbci	r20, 0x6C	; 108
    15da:	13 43       	sbci	r17, 0x33	; 51
    15dc:	85 41       	sbci	r24, 0x15	; 21
    15de:	c1 40       	sbci	r28, 0x01	; 1
    15e0:	60 40       	sbci	r22, 0x00	; 0
    15e2:	30 40       	sbci	r19, 0x00	; 0
    15e4:	18 40       	sbci	r17, 0x08	; 8
    15e6:	82 1c       	adc	r8, r2
    15e8:	ac 8f       	std	Y+28, r26	; 0x1c
    15ea:	e4 5f       	subi	r30, 0xF4	; 244
    15ec:	56 4e       	sbci	r21, 0xE6	; 230
    15ee:	ce 46       	sbci	r28, 0x6E	; 110
    15f0:	51 43       	sbci	r21, 0x31	; 49
    15f2:	a3 41       	sbci	r26, 0x13	; 19
    15f4:	d0 40       	sbci	r29, 0x00	; 0
    15f6:	67 40       	sbci	r22, 0x07	; 7
    15f8:	33 40       	sbci	r19, 0x03	; 3
    15fa:	19 40       	sbci	r17, 0x09	; 9
    15fc:	e8 1a       	sub	r14, r24
    15fe:	37 98       	cbi	0x06, 7	; 6
    1600:	b3 62       	ori	r27, 0x23	; 35
    1602:	7a 4f       	sbci	r23, 0xFA	; 250
    1604:	52 47       	sbci	r21, 0x72	; 114
    1606:	8f 43       	sbci	r24, 0x3F	; 63
    1608:	c1 41       	sbci	r28, 0x11	; 17
    160a:	df 40       	sbci	r29, 0x0F	; 15
    160c:	6f 40       	sbci	r22, 0x0F	; 15
    160e:	37 40       	sbci	r19, 0x07	; 7
    1610:	1b 40       	sbci	r17, 0x0B	; 11
    1612:	65 19       	sub	r22, r5
    1614:	45 a1       	ldd	r20, Z+37	; 0x25
    1616:	97 65       	ori	r25, 0x57	; 87
    1618:	a2 50       	subi	r26, 0x02	; 2
    161a:	d6 47       	sbci	r29, 0x76	; 118
    161c:	ce 43       	sbci	r28, 0x3E	; 62
    161e:	e0 41       	sbci	r30, 0x10	; 16
    1620:	ee 40       	sbci	r30, 0x0E	; 14
    1622:	76 40       	sbci	r23, 0x06	; 6
    1624:	3b 40       	sbci	r19, 0x0B	; 11
    1626:	1d 40       	sbci	r17, 0x0D	; 13
    1628:	f9 17       	cp	r31, r25
    162a:	dc aa       	std	Y+52, r13	; 0x34
    162c:	92 68       	ori	r25, 0x82	; 130
    162e:	ce 51       	subi	r28, 0x1E	; 30
    1630:	5b 48       	sbci	r21, 0x8B	; 139
    1632:	0d 44       	sbci	r16, 0x4D	; 77
    1634:	fe 41       	sbci	r31, 0x1E	; 30
    1636:	fd 40       	sbci	r31, 0x0D	; 13
    1638:	7e 40       	sbci	r23, 0x0E	; 14
    163a:	3e 40       	sbci	r19, 0x0E	; 14
    163c:	1f 40       	sbci	r17, 0x0F	; 15
    163e:	a0 16       	cp	r10, r16
    1640:	04 b5       	in	r16, 0x24	; 36
    1642:	a2 6b       	ori	r26, 0xB2	; 178
    1644:	ff 52       	subi	r31, 0x2F	; 47
    1646:	e1 48       	sbci	r30, 0x81	; 129
    1648:	4c 44       	sbci	r20, 0x4C	; 76
    164a:	1d 42       	sbci	r17, 0x2D	; 45
    164c:	0c 41       	sbci	r16, 0x1C	; 28
    164e:	85 40       	sbci	r24, 0x05	; 5
    1650:	42 40       	sbci	r20, 0x02	; 2
    1652:	21 40       	sbci	r18, 0x01	; 1
    1654:	5b 15       	cp	r21, r11
    1656:	c8 bf       	out	0x38, r28	; 56
    1658:	c9 6e       	ori	r28, 0xE9	; 233
    165a:	34 54       	subi	r19, 0x44	; 68
    165c:	69 49       	sbci	r22, 0x99	; 153
    165e:	8b 44       	sbci	r24, 0x4B	; 75
    1660:	3b 42       	sbci	r19, 0x2B	; 43
    1662:	1b 41       	sbci	r17, 0x1B	; 27
    1664:	8d 40       	sbci	r24, 0x0D	; 13
    1666:	46 40       	sbci	r20, 0x06	; 6
    1668:	23 40       	sbci	r18, 0x03	; 3
    166a:	28 14       	cp	r2, r8
    166c:	2f cb       	rjmp	.-2466   	; 0xccc <__stack+0x1cd>
    166e:	08 72       	andi	r16, 0x28	; 40
    1670:	6e 55       	subi	r22, 0x5E	; 94
    1672:	f1 49       	sbci	r31, 0x91	; 145
    1674:	ca 44       	sbci	r28, 0x4A	; 74
    1676:	5a 42       	sbci	r21, 0x2A	; 42
    1678:	2a 41       	sbci	r18, 0x1A	; 26
    167a:	94 40       	sbci	r25, 0x04	; 4
    167c:	4a 40       	sbci	r20, 0x0A	; 10
    167e:	25 40       	sbci	r18, 0x05	; 5
    1680:	06 13       	cpse	r16, r22
    1682:	44 d7       	rcall	.+3720   	; 0x250c <main+0x5c6>
    1684:	60 75       	andi	r22, 0x50	; 80
    1686:	ac 56       	subi	r26, 0x6C	; 108
    1688:	7a 4a       	sbci	r23, 0xAA	; 170
    168a:	0a 45       	sbci	r16, 0x5A	; 90
    168c:	78 42       	sbci	r23, 0x28	; 40
    168e:	39 41       	sbci	r19, 0x19	; 25
    1690:	9c 40       	sbci	r25, 0x0C	; 12
    1692:	4d 40       	sbci	r20, 0x0D	; 13
    1694:	26 40       	sbci	r18, 0x06	; 6
    1696:	f5 11       	cpse	r31, r5
    1698:	11 e4       	ldi	r17, 0x41	; 65
    169a:	d0 78       	andi	r29, 0x80	; 128
    169c:	ee 57       	subi	r30, 0x7E	; 126
    169e:	04 4b       	sbci	r16, 0xB4	; 180
    16a0:	4a 45       	sbci	r20, 0x5A	; 90
    16a2:	97 42       	sbci	r25, 0x27	; 39
    16a4:	48 41       	sbci	r20, 0x18	; 24
    16a6:	a3 40       	sbci	r26, 0x03	; 3
    16a8:	51 40       	sbci	r21, 0x01	; 1
    16aa:	28 40       	sbci	r18, 0x08	; 8
    16ac:	f3 10       	cpse	r15, r3
    16ae:	a1 f1       	breq	.+104    	; 0x1718 <conv+0x30>
    16b0:	5b 7c       	andi	r21, 0xCB	; 203
    16b2:	36 59       	subi	r19, 0x96	; 150
    16b4:	8f 4b       	sbci	r24, 0xBF	; 191
    16b6:	8a 45       	sbci	r24, 0x5A	; 90
    16b8:	b6 42       	sbci	r27, 0x26	; 38
    16ba:	57 41       	sbci	r21, 0x17	; 23
    16bc:	aa 40       	sbci	r26, 0x0A	; 10
    16be:	55 40       	sbci	r21, 0x05	; 5
    16c0:	2a 40       	sbci	r18, 0x0A	; 10
    16c2:	00 10       	cpse	r0, r0
    16c4:	ff ff       	.word	0xffff	; ????
    16c6:	00 80       	ld	r0, Z
    16c8:	82 5a       	subi	r24, 0xA2	; 162
    16ca:	1b 4c       	sbci	r17, 0xCB	; 203
    16cc:	ca 45       	sbci	r28, 0x5A	; 90
    16ce:	d5 42       	sbci	r29, 0x25	; 37
    16d0:	66 41       	sbci	r22, 0x16	; 22
    16d2:	b2 40       	sbci	r27, 0x02	; 2
    16d4:	2c 40       	sbci	r18, 0x0C	; 12
    16d6:	58 40       	sbci	r21, 0x08	; 8

000016d8 <calc_exp>:

.func calc_exp

calc_exp:

	push	r1
    16d8:	1f 92       	push	r1
	push	ZERO
    16da:	1f 93       	push	r17

	clr		ZERO
    16dc:	11 27       	eor	r17, r17
	tst		r22
    16de:	66 23       	and	r22, r22
	brne	conv
    16e0:	19 f4       	brne	.+6      	; 0x16e8 <conv>
	ldi		EXP_L,0
    16e2:	80 e0       	ldi	r24, 0x00	; 0
	ldi		EXP_H,0x40
    16e4:	90 e4       	ldi	r25, 0x40	; 64
	jmp		return
    16e6:	ef c0       	rjmp	.+478    	; 0x18c6 <return>

000016e8 <conv>:

conv:
	dec     r22
    16e8:	6a 95       	dec	r22
	ldi		R23,22		; &(expon_tbl[num][0]) テーブルのアドレス計算 
    16ea:	76 e1       	ldi	r23, 0x16	; 22
	mul		r22,R23
    16ec:	67 9f       	mul	r22, r23
	movw	TBLP_L,r0
    16ee:	f0 01       	movw	r30, r0
	subi	TBLP_L,lo8(-(expon_tbl)) ;set Z pinter
    16f0:	e8 53       	subi	r30, 0x38	; 56
	sbci	TBLP_H,hi8(-(expon_tbl))	
    16f2:	fb 4e       	sbci	r31, 0xEB	; 235

//pow(2;-step)load-------------------------------
	
	lpm AL,Z+
    16f4:	a5 91       	lpm	r26, Z+
	lpm AH,Z+
    16f6:	b5 91       	lpm	r27, Z+
		
//mul^512------------------------

	lpm BL,Z+	;3
    16f8:	65 91       	lpm	r22, Z+
	lpm BH,Z+	;6
    16fa:	75 91       	lpm	r23, Z+

	SBRS	EXP_H,5	;8
    16fc:	95 ff       	sbrs	r25, 5
	rjmp	next512				
    16fe:	13 c0       	rjmp	.+38     	; 0x1726 <next512>

	mul AL,BL	;10
    1700:	a6 9f       	mul	r26, r22
	movw CL,r0	;12
    1702:	90 01       	movw	r18, r0
	mul AH,BH	;14
    1704:	b7 9f       	mul	r27, r23
	movw CMH,r0	;16
    1706:	a0 01       	movw	r20, r0
	mul AL,BH	;18
    1708:	a7 9f       	mul	r26, r23
	add CML,r0	;19
    170a:	30 0d       	add	r19, r0
	adc CMH,r1	;20
    170c:	41 1d       	adc	r20, r1
	adc CH,ZERO	;21
    170e:	51 1f       	adc	r21, r17
	mul AH,BL	;23
    1710:	b6 9f       	mul	r27, r22
	add CML,r0	;24
    1712:	30 0d       	add	r19, r0
	adc CMH,r1	;25
    1714:	41 1d       	adc	r20, r1
	adc CH,ZERO	;26
    1716:	51 1f       	adc	r21, r17

	lsl CML		;27
    1718:	33 0f       	add	r19, r19
	rol CMH		;28
    171a:	44 1f       	adc	r20, r20
	rol CH		;29
    171c:	55 1f       	adc	r21, r21
	lsl CML		;30
    171e:	33 0f       	add	r19, r19
	rol CMH		;31
    1720:	44 1f       	adc	r20, r20
	rol CH		;32
    1722:	55 1f       	adc	r21, r21
	movw AL,CMH ;34
    1724:	da 01       	movw	r26, r20

00001726 <next512>:



//mul^256-------------------------------------

	lpm BL,Z+		
    1726:	65 91       	lpm	r22, Z+
	lpm BH,Z+		
    1728:	75 91       	lpm	r23, Z+

	SBRS EXP_H,4	
    172a:	94 ff       	sbrs	r25, 4
	rjmp	next256		
    172c:	13 c0       	rjmp	.+38     	; 0x1754 <next256>

	mul AL,BL	
    172e:	a6 9f       	mul	r26, r22
	movw CL,r0	
    1730:	90 01       	movw	r18, r0
	mul AH,BH	
    1732:	b7 9f       	mul	r27, r23
	movw CMH,r0	
    1734:	a0 01       	movw	r20, r0
	mul AL,BH	
    1736:	a7 9f       	mul	r26, r23
	add CML,r0	
    1738:	30 0d       	add	r19, r0
	adc CMH,r1	
    173a:	41 1d       	adc	r20, r1
	adc CH,ZERO	
    173c:	51 1f       	adc	r21, r17
	mul AH,BL	
    173e:	b6 9f       	mul	r27, r22
	add CML,r0	
    1740:	30 0d       	add	r19, r0
	adc CMH,r1	
    1742:	41 1d       	adc	r20, r1
	adc CH,ZERO	
    1744:	51 1f       	adc	r21, r17
	lsl CML		
    1746:	33 0f       	add	r19, r19
	rol CMH		
    1748:	44 1f       	adc	r20, r20
	rol CH		
    174a:	55 1f       	adc	r21, r21
	lsl CML		
    174c:	33 0f       	add	r19, r19
	rol CMH		
    174e:	44 1f       	adc	r20, r20
	rol CH		
    1750:	55 1f       	adc	r21, r21
	movw AL,CMH
    1752:	da 01       	movw	r26, r20

00001754 <next256>:


//mul^128----------------------------

	
	lpm BL,Z+	
    1754:	65 91       	lpm	r22, Z+
	lpm BH,Z+	
    1756:	75 91       	lpm	r23, Z+

	SBRS	EXP_H,3
    1758:	93 ff       	sbrs	r25, 3
	rjmp	next128	
    175a:	13 c0       	rjmp	.+38     	; 0x1782 <next128>
	
	mul AL,BL	
    175c:	a6 9f       	mul	r26, r22
	movw CL,r0	
    175e:	90 01       	movw	r18, r0
	mul AH,BH	
    1760:	b7 9f       	mul	r27, r23
	movw CMH,r0	
    1762:	a0 01       	movw	r20, r0
	mul AL,BH	
    1764:	a7 9f       	mul	r26, r23
	add CML,r0
    1766:	30 0d       	add	r19, r0
	adc CMH,r1	
    1768:	41 1d       	adc	r20, r1
	adc CH,ZERO	
    176a:	51 1f       	adc	r21, r17
	mul AH,BL	
    176c:	b6 9f       	mul	r27, r22
	add CML,r0	
    176e:	30 0d       	add	r19, r0
	adc CMH,r1	
    1770:	41 1d       	adc	r20, r1
	adc CH,ZERO
    1772:	51 1f       	adc	r21, r17
	lsl CML		
    1774:	33 0f       	add	r19, r19
	rol CMH	
    1776:	44 1f       	adc	r20, r20
	rol CH		
    1778:	55 1f       	adc	r21, r21
	lsl CML		
    177a:	33 0f       	add	r19, r19
	rol CMH		
    177c:	44 1f       	adc	r20, r20
	rol CH		
    177e:	55 1f       	adc	r21, r21
	movw AL,CMH 
    1780:	da 01       	movw	r26, r20

00001782 <next128>:
next128:


//mul^64---------------------------

	lpm BL,Z+		
    1782:	65 91       	lpm	r22, Z+
	lpm BH,Z+	
    1784:	75 91       	lpm	r23, Z+
		
	SBRS	EXP_H,2
    1786:	92 ff       	sbrs	r25, 2
	rjmp	next64	
    1788:	13 c0       	rjmp	.+38     	; 0x17b0 <next64>

	mul AL,BL	
    178a:	a6 9f       	mul	r26, r22
	movw CL,r0	
    178c:	90 01       	movw	r18, r0
	mul AH,BH	
    178e:	b7 9f       	mul	r27, r23
	movw CMH,r0	
    1790:	a0 01       	movw	r20, r0
	mul AL,BH	
    1792:	a7 9f       	mul	r26, r23
	add CML,r0	
    1794:	30 0d       	add	r19, r0
	adc CMH,r1	
    1796:	41 1d       	adc	r20, r1
	adc CH,ZERO	
    1798:	51 1f       	adc	r21, r17
	mul AH,BL	
    179a:	b6 9f       	mul	r27, r22
	add CML,r0	
    179c:	30 0d       	add	r19, r0
	adc CMH,r1	
    179e:	41 1d       	adc	r20, r1
	adc CH,ZERO	
    17a0:	51 1f       	adc	r21, r17
	lsl CML		
    17a2:	33 0f       	add	r19, r19
	rol CMH		
    17a4:	44 1f       	adc	r20, r20
	rol CH		
    17a6:	55 1f       	adc	r21, r21
	lsl CML		
    17a8:	33 0f       	add	r19, r19
	rol CMH		
    17aa:	44 1f       	adc	r20, r20
	rol CH		
    17ac:	55 1f       	adc	r21, r21
	movw AL,CMH 
    17ae:	da 01       	movw	r26, r20

000017b0 <next64>:
next64:


//mul^32------------------------------

	lpm BL,Z+		
    17b0:	65 91       	lpm	r22, Z+
	lpm BH,Z+
    17b2:	75 91       	lpm	r23, Z+

	SBRS	EXP_H,1
    17b4:	91 ff       	sbrs	r25, 1
	rjmp	next32	
    17b6:	13 c0       	rjmp	.+38     	; 0x17de <next32>

	mul AL,BL	
    17b8:	a6 9f       	mul	r26, r22
	movw CL,r0	
    17ba:	90 01       	movw	r18, r0
	mul AH,BH	
    17bc:	b7 9f       	mul	r27, r23
	movw CMH,r0	
    17be:	a0 01       	movw	r20, r0
	mul AL,BH	
    17c0:	a7 9f       	mul	r26, r23
	add CML,r0	
    17c2:	30 0d       	add	r19, r0
	adc CMH,r1	
    17c4:	41 1d       	adc	r20, r1
	adc CH,ZERO	
    17c6:	51 1f       	adc	r21, r17
	mul AH,BL	
    17c8:	b6 9f       	mul	r27, r22
	add CML,r0	
    17ca:	30 0d       	add	r19, r0
	adc CMH,r1	
    17cc:	41 1d       	adc	r20, r1
	adc CH,ZERO	
    17ce:	51 1f       	adc	r21, r17
	lsl CML		
    17d0:	33 0f       	add	r19, r19
	rol CMH		
    17d2:	44 1f       	adc	r20, r20
	rol CH		
    17d4:	55 1f       	adc	r21, r21
	lsl CML		
    17d6:	33 0f       	add	r19, r19
	rol CMH		
    17d8:	44 1f       	adc	r20, r20
	rol CH		
    17da:	55 1f       	adc	r21, r21
	movw AL,CMH 
    17dc:	da 01       	movw	r26, r20

000017de <next32>:
next32:


//mul^16-----------------------------

	lpm BL,Z+	
    17de:	65 91       	lpm	r22, Z+
	lpm BH,Z+		
    17e0:	75 91       	lpm	r23, Z+

	SBRS	EXP_H,0
    17e2:	90 ff       	sbrs	r25, 0
	rjmp	next16	
    17e4:	13 c0       	rjmp	.+38     	; 0x180c <next16>

	mul AL,BL	
    17e6:	a6 9f       	mul	r26, r22
	movw CL,r0	
    17e8:	90 01       	movw	r18, r0
	mul AH,BH	
    17ea:	b7 9f       	mul	r27, r23
	movw CMH,r0	
    17ec:	a0 01       	movw	r20, r0
	mul AL,BH	
    17ee:	a7 9f       	mul	r26, r23
	add CML,r0	
    17f0:	30 0d       	add	r19, r0
	adc CMH,r1	
    17f2:	41 1d       	adc	r20, r1
	adc CH,ZERO	
    17f4:	51 1f       	adc	r21, r17
	mul AH,BL	
    17f6:	b6 9f       	mul	r27, r22
	add CML,r0	
    17f8:	30 0d       	add	r19, r0
	adc CMH,r1	
    17fa:	41 1d       	adc	r20, r1
	adc CH,ZERO	
    17fc:	51 1f       	adc	r21, r17
	lsl CML		
    17fe:	33 0f       	add	r19, r19
	rol CMH		
    1800:	44 1f       	adc	r20, r20
	rol CH		
    1802:	55 1f       	adc	r21, r21
	lsl CML		
    1804:	33 0f       	add	r19, r19
	rol CMH		
    1806:	44 1f       	adc	r20, r20
	rol CH		
    1808:	55 1f       	adc	r21, r21
	movw AL,CMH 
    180a:	da 01       	movw	r26, r20

0000180c <next16>:



//mul^8-----------------------------

	lpm BL,Z+	
    180c:	65 91       	lpm	r22, Z+
	lpm BH,Z+		
    180e:	75 91       	lpm	r23, Z+

	SBRS	EXP_L,7
    1810:	87 ff       	sbrs	r24, 7
	rjmp	next8
    1812:	13 c0       	rjmp	.+38     	; 0x183a <next8>

	mul AL,BL	
    1814:	a6 9f       	mul	r26, r22
	movw CL,r0	
    1816:	90 01       	movw	r18, r0
	mul AH,BH	
    1818:	b7 9f       	mul	r27, r23
	movw CMH,r0	
    181a:	a0 01       	movw	r20, r0
	mul AL,BH	
    181c:	a7 9f       	mul	r26, r23
	add CML,r0	
    181e:	30 0d       	add	r19, r0
	adc CMH,r1	
    1820:	41 1d       	adc	r20, r1
	adc CH,ZERO	
    1822:	51 1f       	adc	r21, r17
	mul AH,BL	
    1824:	b6 9f       	mul	r27, r22
	add CML,r0	
    1826:	30 0d       	add	r19, r0
	adc CMH,r1	
    1828:	41 1d       	adc	r20, r1
	adc CH,ZERO	
    182a:	51 1f       	adc	r21, r17
	lsl CML		
    182c:	33 0f       	add	r19, r19
	rol CMH		
    182e:	44 1f       	adc	r20, r20
	rol CH		
    1830:	55 1f       	adc	r21, r21
	lsl CML		
    1832:	33 0f       	add	r19, r19
	rol CMH		
    1834:	44 1f       	adc	r20, r20
	rol CH		
    1836:	55 1f       	adc	r21, r21
	movw AL,CMH 
    1838:	da 01       	movw	r26, r20

0000183a <next8>:



//mul^4-------------------------

	lpm BL,Z+	
    183a:	65 91       	lpm	r22, Z+
	lpm BH,Z+		
    183c:	75 91       	lpm	r23, Z+

	SBRS	EXP_L,6
    183e:	86 ff       	sbrs	r24, 6
	rjmp	next4
    1840:	13 c0       	rjmp	.+38     	; 0x1868 <next4>
		
	mul AL,BL	
    1842:	a6 9f       	mul	r26, r22
	movw CL,r0	
    1844:	90 01       	movw	r18, r0
	mul AH,BH	
    1846:	b7 9f       	mul	r27, r23
	movw CMH,r0	
    1848:	a0 01       	movw	r20, r0
	mul AL,BH	
    184a:	a7 9f       	mul	r26, r23
	add CML,r0
    184c:	30 0d       	add	r19, r0
	adc CMH,r1	
    184e:	41 1d       	adc	r20, r1
	adc CH,ZERO	
    1850:	51 1f       	adc	r21, r17
	mul AH,BL	
    1852:	b6 9f       	mul	r27, r22
	add CML,r0	
    1854:	30 0d       	add	r19, r0
	adc CMH,r1	
    1856:	41 1d       	adc	r20, r1
	adc CH,ZERO	
    1858:	51 1f       	adc	r21, r17
	lsl CML		
    185a:	33 0f       	add	r19, r19
	rol CMH		
    185c:	44 1f       	adc	r20, r20
	rol CH		
    185e:	55 1f       	adc	r21, r21
	lsl CML		
    1860:	33 0f       	add	r19, r19
	rol CMH		
    1862:	44 1f       	adc	r20, r20
	rol CH		
    1864:	55 1f       	adc	r21, r21
	movw AL,CMH 
    1866:	da 01       	movw	r26, r20

00001868 <next4>:
next4:	

//mul^2-----------------------------

	lpm BL,Z+	
    1868:	65 91       	lpm	r22, Z+
	lpm BH,Z+		
    186a:	75 91       	lpm	r23, Z+

	SBRS	EXP_L,5
    186c:	85 ff       	sbrs	r24, 5
	rjmp	next2
    186e:	13 c0       	rjmp	.+38     	; 0x1896 <next2>

	mul AL,BL	
    1870:	a6 9f       	mul	r26, r22
	movw CL,r0	
    1872:	90 01       	movw	r18, r0
	mul AH,BH	
    1874:	b7 9f       	mul	r27, r23
	movw CMH,r0	
    1876:	a0 01       	movw	r20, r0
	mul AL,BH	
    1878:	a7 9f       	mul	r26, r23
	add CML,r0	
    187a:	30 0d       	add	r19, r0
	adc CMH,r1	
    187c:	41 1d       	adc	r20, r1
	adc CH,ZERO	
    187e:	51 1f       	adc	r21, r17
	mul AH,BL	
    1880:	b6 9f       	mul	r27, r22
	add CML,r0	
    1882:	30 0d       	add	r19, r0
	adc CMH,r1	
    1884:	41 1d       	adc	r20, r1
	adc CH,ZERO	
    1886:	51 1f       	adc	r21, r17
	lsl CML		
    1888:	33 0f       	add	r19, r19
	rol CMH		
    188a:	44 1f       	adc	r20, r20
	rol CH		
    188c:	55 1f       	adc	r21, r21
	lsl CML		
    188e:	33 0f       	add	r19, r19
	rol CMH		
    1890:	44 1f       	adc	r20, r20
	rol CH		
    1892:	55 1f       	adc	r21, r21
	movw AL,CMH 
    1894:	da 01       	movw	r26, r20

00001896 <next2>:



//mul^1-----------------------------

	lpm	BL,Z+
    1896:	65 91       	lpm	r22, Z+
	lpm BH,Z+
    1898:	75 91       	lpm	r23, Z+
		
	SBRS	EXP_L,4
    189a:	84 ff       	sbrs	r24, 4
	rjmp	next1	
    189c:	13 c0       	rjmp	.+38     	; 0x18c4 <next1>
	
		
	mul AL,BL	
    189e:	a6 9f       	mul	r26, r22
	movw CL,r0	
    18a0:	90 01       	movw	r18, r0
	mul AH,BH	
    18a2:	b7 9f       	mul	r27, r23
	movw CMH,r0	
    18a4:	a0 01       	movw	r20, r0
	mul AL,BH	
    18a6:	a7 9f       	mul	r26, r23
	add CML,r0	
    18a8:	30 0d       	add	r19, r0
	adc CMH,r1	
    18aa:	41 1d       	adc	r20, r1
	adc CH,ZERO	
    18ac:	51 1f       	adc	r21, r17
	mul AH,BL	
    18ae:	b6 9f       	mul	r27, r22
	add CML,r0	
    18b0:	30 0d       	add	r19, r0
	adc CMH,r1	
    18b2:	41 1d       	adc	r20, r1
	adc CH,ZERO	
    18b4:	51 1f       	adc	r21, r17
	lsl CML		
    18b6:	33 0f       	add	r19, r19
	rol CMH		
    18b8:	44 1f       	adc	r20, r20
	rol CH		
    18ba:	55 1f       	adc	r21, r21
	lsl CML		
    18bc:	33 0f       	add	r19, r19
	rol CMH		
    18be:	44 1f       	adc	r20, r20
	rol CH		
    18c0:	55 1f       	adc	r21, r21
	movw AL,CMH 
    18c2:	da 01       	movw	r26, r20

000018c4 <next1>:

next1:


	movw EXP_L,AL
    18c4:	cd 01       	movw	r24, r26

000018c6 <return>:

return:
	pop ZERO
    18c6:	1f 91       	pop	r17
	pop r1
    18c8:	1f 90       	pop	r1
	ret
    18ca:	08 95       	ret

000018cc <__vector_24>:
spi_sendData:	.ds.b	256

.section .text
.func SPI_STC_vect
SPI_STC_vect:
	cli
    18cc:	f8 94       	cli

	push r0
    18ce:	0f 92       	push	r0
	in r0, _SFR_IO_ADDR(SREG) 
    18d0:	0f b6       	in	r0, 0x3f	; 63
	push r0
    18d2:	0f 92       	push	r0

	push r24
    18d4:	8f 93       	push	r24
	push r30
    18d6:	ef 93       	push	r30
	push r31
    18d8:	ff 93       	push	r31

	lds r24,send_buf_byte
    18da:	80 91 02 01 	lds	r24, 0x0102
	subi r24,1
    18de:	81 50       	subi	r24, 0x01	; 1
	sts send_buf_byte,r24
    18e0:	80 93 02 01 	sts	0x0102, r24
	tst r24
    18e4:	88 23       	and	r24, r24
	breq NO_DATA
    18e6:	91 f0       	breq	.+36     	; 0x190c <NO_DATA>

	sbrs r24,0
    18e8:	80 ff       	sbrs	r24, 0
	rjmp FIRST_BYTE
    18ea:	19 c0       	rjmp	.+50     	; 0x191e <FIRST_BYTE>

	lds r30,spi_send_read
    18ec:	e0 91 01 01 	lds	r30, 0x0101
	ldi r31,hi8(spi_sendData)
    18f0:	f2 e0       	ldi	r31, 0x02	; 2
	ld r24,Z
    18f2:	80 81       	ld	r24, Z
	out _SFR_IO_ADDR(SPDR),r24
    18f4:	8e bd       	out	0x2e, r24	; 46
	inc r30
    18f6:	e3 95       	inc	r30
	sts spi_send_read,r30
    18f8:	e0 93 01 01 	sts	0x0101, r30

	pop r31
    18fc:	ff 91       	pop	r31
	pop r30
    18fe:	ef 91       	pop	r30
	pop r24
    1900:	8f 91       	pop	r24
	pop r0
    1902:	0f 90       	pop	r0
	out _SFR_IO_ADDR(SREG),r0
    1904:	0f be       	out	0x3f, r0	; 63
	pop r0
    1906:	0f 90       	pop	r0
	sei
    1908:	78 94       	sei
	reti
    190a:	18 95       	reti

0000190c <NO_DATA>:

NO_DATA:	
	sbi 0x5,0
    190c:	28 9a       	sbi	0x05, 0	; 5

	pop r31
    190e:	ff 91       	pop	r31
	pop r30
    1910:	ef 91       	pop	r30
	pop r24
    1912:	8f 91       	pop	r24
	pop r0
    1914:	0f 90       	pop	r0
	out _SFR_IO_ADDR(SREG),r0
    1916:	0f be       	out	0x3f, r0	; 63
	pop r0
    1918:	0f 90       	pop	r0
	sei
    191a:	78 94       	sei
	reti
    191c:	18 95       	reti

0000191e <FIRST_BYTE>:

FIRST_BYTE:	
	sbi 0x5,0				;SSをHI
    191e:	28 9a       	sbi	0x05, 0	; 5

	lds r30,spi_send_read
    1920:	e0 91 01 01 	lds	r30, 0x0101
	cbi 0x5,0					;1 SPI clock 以上空けてSSをLOにする
    1924:	28 98       	cbi	0x05, 0	; 5
	ldi  r31,hi8(spi_sendData)
    1926:	f2 e0       	ldi	r31, 0x02	; 2

	ld r24,Z
    1928:	80 81       	ld	r24, Z
	out _SFR_IO_ADDR(SPDR),r24
    192a:	8e bd       	out	0x2e, r24	; 46

	inc r30
    192c:	e3 95       	inc	r30
	sts spi_send_read,r30
    192e:	e0 93 01 01 	sts	0x0101, r30

	pop r31
    1932:	ff 91       	pop	r31
	pop r30
    1934:	ef 91       	pop	r30
	pop r24
    1936:	8f 91       	pop	r24
	pop r0
    1938:	0f 90       	pop	r0
	out _SFR_IO_ADDR(SREG),r0
    193a:	0f be       	out	0x3f, r0	; 63
	pop r0
    193c:	0f 90       	pop	r0
	sei
    193e:	78 94       	sei
	reti
    1940:	18 95       	reti

00001942 <if_s_write>:
//
.global if_s_write	
.func
if_s_write:

	cli
    1942:	f8 94       	cli
	
	lds r25,send_buf_byte
    1944:	90 91 02 01 	lds	r25, 0x0102
	lds r30,spi_send_write
    1948:	e0 91 00 01 	lds	r30, 0x0100
	
	cpse r25,ZERO
    194c:	91 11       	cpse	r25, r1
	rjmp ON_SEND		//送信中
    194e:	0c c0       	rjmp	.+24     	; 0x1968 <ON_SEND>

	ldi	r31,hi8(spi_sendData)
    1950:	f2 e0       	ldi	r31, 0x02	; 2
	st Z,r22
    1952:	60 83       	st	Z, r22
	inc r30
    1954:	e3 95       	inc	r30
	sts	spi_send_write,r30
    1956:	e0 93 00 01 	sts	0x0100, r30
	ldi r25,2
    195a:	92 e0       	ldi	r25, 0x02	; 2
	sts send_buf_byte,r25
    195c:	90 93 02 01 	sts	0x0102, r25
	cbi 0x5,0
    1960:	28 98       	cbi	0x05, 0	; 5
	out _SFR_IO_ADDR(SPDR),r24
    1962:	8e bd       	out	0x2e, r24	; 46

	sei
    1964:	78 94       	sei
	ret
    1966:	08 95       	ret

00001968 <ON_SEND>:


ON_SEND:				//送信中、バファに積むだけ
	ldi r31,hi8(spi_sendData)
    1968:	f2 e0       	ldi	r31, 0x02	; 2
	st Z,r24
    196a:	80 83       	st	Z, r24
	inc r30
    196c:	e3 95       	inc	r30
	st Z,r22
    196e:	60 83       	st	Z, r22
	inc r30
    1970:	e3 95       	inc	r30
	sts spi_send_write,r30
    1972:	e0 93 00 01 	sts	0x0100, r30

	subi r25,(-2)
    1976:	9e 5f       	subi	r25, 0xFE	; 254
	sts  send_buf_byte,r25
    1978:	90 93 02 01 	sts	0x0102, r25

	sei
    197c:	78 94       	sei
	ret			
    197e:	08 95       	ret

00001980 <flush_spi_buff>:

.func
flush_spi_buff:

loop1:
	lds r24,send_buf_byte
    1980:	80 91 02 01 	lds	r24, 0x0102
	tst r24
    1984:	88 23       	and	r24, r24
	brne loop1
    1986:	e1 f7       	brne	.-8      	; 0x1980 <flush_spi_buff>
	ret
    1988:	08 95       	ret

0000198a <CALLBACK_USB_GetDescriptor>:
 */
uint16_t CALLBACK_USB_GetDescriptor(const uint16_t wValue,
                                    const uint8_t wIndex,
                                    const void** const DescriptorAddress)
{
	const uint8_t  DescriptorType   = (wValue >> 8);
    198a:	29 2f       	mov	r18, r25
    198c:	33 27       	eor	r19, r19
	const uint8_t  DescriptorNumber = (wValue & 0xFF);

	const void* Address = NULL;
	uint16_t    Size    = NO_DESCRIPTOR;

	switch (DescriptorType)
    198e:	22 30       	cpi	r18, 0x02	; 2
    1990:	31 05       	cpc	r19, r1
    1992:	59 f0       	breq	.+22     	; 0x19aa <CALLBACK_USB_GetDescriptor+0x20>
    1994:	23 30       	cpi	r18, 0x03	; 3
    1996:	31 05       	cpc	r19, r1
    1998:	69 f0       	breq	.+26     	; 0x19b4 <CALLBACK_USB_GetDescriptor+0x2a>
    199a:	21 30       	cpi	r18, 0x01	; 1
    199c:	31 05       	cpc	r19, r1
    199e:	29 f1       	breq	.+74     	; 0x19ea <CALLBACK_USB_GetDescriptor+0x60>
{
	const uint8_t  DescriptorType   = (wValue >> 8);
	const uint8_t  DescriptorNumber = (wValue & 0xFF);

	const void* Address = NULL;
	uint16_t    Size    = NO_DESCRIPTOR;
    19a0:	80 e0       	ldi	r24, 0x00	; 0
    19a2:	90 e0       	ldi	r25, 0x00	; 0
                                    const void** const DescriptorAddress)
{
	const uint8_t  DescriptorType   = (wValue >> 8);
	const uint8_t  DescriptorNumber = (wValue & 0xFF);

	const void* Address = NULL;
    19a4:	20 e0       	ldi	r18, 0x00	; 0
    19a6:	30 e0       	ldi	r19, 0x00	; 0
    19a8:	29 c0       	rjmp	.+82     	; 0x19fc <CALLBACK_USB_GetDescriptor+0x72>
			Address = &DeviceDescriptor;
			Size    = sizeof(USB_Descriptor_Device_t);
			break;
		case DTYPE_Configuration:
			Address = &ConfigurationDescriptor;
			Size    = sizeof(USB_Descriptor_Configuration_t);
    19aa:	85 e8       	ldi	r24, 0x85	; 133
    19ac:	90 e0       	ldi	r25, 0x00	; 0
		case DTYPE_Device:
			Address = &DeviceDescriptor;
			Size    = sizeof(USB_Descriptor_Device_t);
			break;
		case DTYPE_Configuration:
			Address = &ConfigurationDescriptor;
    19ae:	24 ef       	ldi	r18, 0xF4	; 244
    19b0:	30 e0       	ldi	r19, 0x00	; 0
			Size    = sizeof(USB_Descriptor_Configuration_t);
			break;
    19b2:	24 c0       	rjmp	.+72     	; 0x19fc <CALLBACK_USB_GetDescriptor+0x72>
    19b4:	99 27       	eor	r25, r25
		case DTYPE_String:
			switch (DescriptorNumber)
    19b6:	81 30       	cpi	r24, 0x01	; 1
    19b8:	91 05       	cpc	r25, r1
    19ba:	59 f0       	breq	.+22     	; 0x19d2 <CALLBACK_USB_GetDescriptor+0x48>
    19bc:	82 30       	cpi	r24, 0x02	; 2
    19be:	91 05       	cpc	r25, r1
    19c0:	71 f0       	breq	.+28     	; 0x19de <CALLBACK_USB_GetDescriptor+0x54>
    19c2:	89 2b       	or	r24, r25
    19c4:	b9 f4       	brne	.+46     	; 0x19f4 <CALLBACK_USB_GetDescriptor+0x6a>
			{
				case STRING_ID_Language:
					Address = &LanguageString;
					Size    = pgm_read_byte(&LanguageString.Header.Size);
    19c6:	e0 ef       	ldi	r30, 0xF0	; 240
    19c8:	f0 e0       	ldi	r31, 0x00	; 0
    19ca:	84 91       	lpm	r24, Z
    19cc:	90 e0       	ldi	r25, 0x00	; 0
			break;
		case DTYPE_String:
			switch (DescriptorNumber)
			{
				case STRING_ID_Language:
					Address = &LanguageString;
    19ce:	9f 01       	movw	r18, r30
					Size    = pgm_read_byte(&LanguageString.Header.Size);
					break;
    19d0:	15 c0       	rjmp	.+42     	; 0x19fc <CALLBACK_USB_GetDescriptor+0x72>
				case STRING_ID_Manufacturer:
					Address = &ManufacturerString;
					Size    = pgm_read_byte(&ManufacturerString.Header.Size);
    19d2:	e6 ed       	ldi	r30, 0xD6	; 214
    19d4:	f0 e0       	ldi	r31, 0x00	; 0
    19d6:	84 91       	lpm	r24, Z
    19d8:	90 e0       	ldi	r25, 0x00	; 0
				case STRING_ID_Language:
					Address = &LanguageString;
					Size    = pgm_read_byte(&LanguageString.Header.Size);
					break;
				case STRING_ID_Manufacturer:
					Address = &ManufacturerString;
    19da:	9f 01       	movw	r18, r30
					Size    = pgm_read_byte(&ManufacturerString.Header.Size);
					break;
    19dc:	0f c0       	rjmp	.+30     	; 0x19fc <CALLBACK_USB_GetDescriptor+0x72>
				case STRING_ID_Product:
					Address = &ProductString;
					Size    = pgm_read_byte(&ProductString.Header.Size);
    19de:	ec ea       	ldi	r30, 0xAC	; 172
    19e0:	f0 e0       	ldi	r31, 0x00	; 0
    19e2:	84 91       	lpm	r24, Z
    19e4:	90 e0       	ldi	r25, 0x00	; 0
				case STRING_ID_Manufacturer:
					Address = &ManufacturerString;
					Size    = pgm_read_byte(&ManufacturerString.Header.Size);
					break;
				case STRING_ID_Product:
					Address = &ProductString;
    19e6:	9f 01       	movw	r18, r30
					Size    = pgm_read_byte(&ProductString.Header.Size);
					break;
    19e8:	09 c0       	rjmp	.+18     	; 0x19fc <CALLBACK_USB_GetDescriptor+0x72>

	switch (DescriptorType)
	{
		case DTYPE_Device:
			Address = &DeviceDescriptor;
			Size    = sizeof(USB_Descriptor_Device_t);
    19ea:	82 e1       	ldi	r24, 0x12	; 18
    19ec:	90 e0       	ldi	r25, 0x00	; 0
	uint16_t    Size    = NO_DESCRIPTOR;

	switch (DescriptorType)
	{
		case DTYPE_Device:
			Address = &DeviceDescriptor;
    19ee:	29 e7       	ldi	r18, 0x79	; 121
    19f0:	31 e0       	ldi	r19, 0x01	; 1
    19f2:	04 c0       	rjmp	.+8      	; 0x19fc <CALLBACK_USB_GetDescriptor+0x72>
{
	const uint8_t  DescriptorType   = (wValue >> 8);
	const uint8_t  DescriptorNumber = (wValue & 0xFF);

	const void* Address = NULL;
	uint16_t    Size    = NO_DESCRIPTOR;
    19f4:	80 e0       	ldi	r24, 0x00	; 0
    19f6:	90 e0       	ldi	r25, 0x00	; 0
                                    const void** const DescriptorAddress)
{
	const uint8_t  DescriptorType   = (wValue >> 8);
	const uint8_t  DescriptorNumber = (wValue & 0xFF);

	const void* Address = NULL;
    19f8:	20 e0       	ldi	r18, 0x00	; 0
    19fa:	30 e0       	ldi	r19, 0x00	; 0
			}

			break;
	}

	*DescriptorAddress = Address;
    19fc:	fa 01       	movw	r30, r20
    19fe:	31 83       	std	Z+1, r19	; 0x01
    1a00:	20 83       	st	Z, r18
	return Size;
}
    1a02:	08 95       	ret

00001a04 <keyon>:
}
void usart_spi_send(unsigned int data){
	while( !(UCSR1A & (1<< UDRE1)));
	UDR1 = data;
	//while( !(UCSR1A & (1<<RXC1)));
	data = UDR1;
    1a04:	cf 93       	push	r28
    1a06:	df 93       	push	r29
    1a08:	d8 2f       	mov	r29, r24
    1a0a:	c6 2f       	mov	r28, r22
    1a0c:	60 e0       	ldi	r22, 0x00	; 0
    1a0e:	8b e0       	ldi	r24, 0x0B	; 11
    1a10:	98 df       	rcall	.-208    	; 0x1942 <if_s_write>
    1a12:	64 e5       	ldi	r22, 0x54	; 84
    1a14:	8c e0       	ldi	r24, 0x0C	; 12
    1a16:	95 df       	rcall	.-214    	; 0x1942 <if_s_write>
    1a18:	6d 2f       	mov	r22, r29
    1a1a:	8d e0       	ldi	r24, 0x0D	; 13
    1a1c:	92 df       	rcall	.-220    	; 0x1942 <if_s_write>
    1a1e:	6c 2f       	mov	r22, r28
    1a20:	8e e0       	ldi	r24, 0x0E	; 14
    1a22:	8f df       	rcall	.-226    	; 0x1942 <if_s_write>
    1a24:	60 e4       	ldi	r22, 0x40	; 64
    1a26:	8f e0       	ldi	r24, 0x0F	; 15
    1a28:	8c df       	rcall	.-232    	; 0x1942 <if_s_write>
    1a2a:	df 91       	pop	r29
    1a2c:	cf 91       	pop	r28
    1a2e:	08 95       	ret

00001a30 <keyoff>:
    1a30:	60 e0       	ldi	r22, 0x00	; 0
    1a32:	8f e0       	ldi	r24, 0x0F	; 15
    1a34:	86 cf       	rjmp	.-244    	; 0x1942 <if_s_write>
    1a36:	08 95       	ret

00001a38 <EVENT_USB_Device_Connect>:
    1a38:	08 95       	ret

00001a3a <EVENT_USB_Device_Disconnect>:
    1a3a:	08 95       	ret

00001a3c <EVENT_USB_Device_ConfigurationChanged>:
    1a3c:	83 e0       	ldi	r24, 0x03	; 3
    1a3e:	91 e0       	ldi	r25, 0x01	; 1
    1a40:	0e 94 76 16 	call	0x2cec	; 0x2cec <MIDI_Device_ConfigureEndpoints>
    1a44:	e2 ee       	ldi	r30, 0xE2	; 226
    1a46:	f0 e0       	ldi	r31, 0x00	; 0
    1a48:	80 81       	ld	r24, Z
    1a4a:	84 60       	ori	r24, 0x04	; 4
    1a4c:	80 83       	st	Z, r24
    1a4e:	08 95       	ret

00001a50 <EVENT_USB_Device_ControlRequest>:
    1a50:	08 95       	ret

00001a52 <EVENT_USB_Device_StartOfFrame>:
    1a52:	08 95       	ret

00001a54 <setChannelDefault>:
    1a54:	ef 92       	push	r14
    1a56:	ff 92       	push	r15
    1a58:	1f 93       	push	r17
    1a5a:	cf 93       	push	r28
    1a5c:	df 93       	push	r29
    1a5e:	4e e3       	ldi	r20, 0x3E	; 62
    1a60:	53 e0       	ldi	r21, 0x03	; 3
    1a62:	2f e4       	ldi	r18, 0x4F	; 79
    1a64:	35 e0       	ldi	r19, 0x05	; 5
    1a66:	ce e2       	ldi	r28, 0x2E	; 46
    1a68:	d3 e0       	ldi	r29, 0x03	; 3
    1a6a:	af e4       	ldi	r26, 0x4F	; 79
    1a6c:	b3 e0       	ldi	r27, 0x03	; 3
    1a6e:	0f 2e       	mov	r0, r31
    1a70:	ff e3       	ldi	r31, 0x3F	; 63
    1a72:	ef 2e       	mov	r14, r31
    1a74:	f5 e0       	ldi	r31, 0x05	; 5
    1a76:	ff 2e       	mov	r15, r31
    1a78:	f0 2d       	mov	r31, r0
    1a7a:	80 e0       	ldi	r24, 0x00	; 0
    1a7c:	90 e0       	ldi	r25, 0x00	; 0
    1a7e:	6f e7       	ldi	r22, 0x7F	; 127
    1a80:	13 e0       	ldi	r17, 0x03	; 3
    1a82:	70 ee       	ldi	r23, 0xE0	; 224
    1a84:	fa 01       	movw	r30, r20
    1a86:	61 93       	st	Z+, r22
    1a88:	af 01       	movw	r20, r30
    1a8a:	f9 01       	movw	r30, r18
    1a8c:	61 93       	st	Z+, r22
    1a8e:	9f 01       	movw	r18, r30
    1a90:	19 92       	st	Y+, r1
    1a92:	1d 93       	st	X+, r17
    1a94:	f7 01       	movw	r30, r14
    1a96:	71 93       	st	Z+, r23
    1a98:	7f 01       	movw	r14, r30
    1a9a:	01 96       	adiw	r24, 0x01	; 1
    1a9c:	80 31       	cpi	r24, 0x10	; 16
    1a9e:	91 05       	cpc	r25, r1
    1aa0:	89 f7       	brne	.-30     	; 0x1a84 <setChannelDefault+0x30>
    1aa2:	d0 d5       	rcall	.+2976   	; 0x2644 <init_midich>
    1aa4:	80 e1       	ldi	r24, 0x10	; 16
    1aa6:	80 93 4e 03 	sts	0x034E, r24
    1aaa:	df 91       	pop	r29
    1aac:	cf 91       	pop	r28
    1aae:	1f 91       	pop	r17
    1ab0:	ff 90       	pop	r15
    1ab2:	ef 90       	pop	r14
    1ab4:	08 95       	ret

00001ab6 <reset_ymf825>:
    1ab6:	cf 92       	push	r12
    1ab8:	df 92       	push	r13
    1aba:	ef 92       	push	r14
    1abc:	ff 92       	push	r15
    1abe:	0f 93       	push	r16
    1ac0:	1f 93       	push	r17
    1ac2:	cf 93       	push	r28
    1ac4:	df 93       	push	r29
    1ac6:	46 9a       	sbi	0x08, 6	; 8
    1ac8:	2f ef       	ldi	r18, 0xFF	; 255
    1aca:	81 ee       	ldi	r24, 0xE1	; 225
    1acc:	94 e0       	ldi	r25, 0x04	; 4
    1ace:	21 50       	subi	r18, 0x01	; 1
    1ad0:	80 40       	sbci	r24, 0x00	; 0
    1ad2:	90 40       	sbci	r25, 0x00	; 0
    1ad4:	e1 f7       	brne	.-8      	; 0x1ace <reset_ymf825+0x18>
    1ad6:	00 c0       	rjmp	.+0      	; 0x1ad8 <reset_ymf825+0x22>
    1ad8:	00 00       	nop
    1ada:	46 98       	cbi	0x08, 6	; 8
    1adc:	8f e3       	ldi	r24, 0x3F	; 63
    1ade:	9c e9       	ldi	r25, 0x9C	; 156
    1ae0:	01 97       	sbiw	r24, 0x01	; 1
    1ae2:	f1 f7       	brne	.-4      	; 0x1ae0 <reset_ymf825+0x2a>
    1ae4:	00 c0       	rjmp	.+0      	; 0x1ae6 <reset_ymf825+0x30>
    1ae6:	00 00       	nop
    1ae8:	46 9a       	sbi	0x08, 6	; 8
    1aea:	28 9a       	sbi	0x05, 0	; 5
    1aec:	28 9a       	sbi	0x05, 0	; 5
    1aee:	9f ef       	ldi	r25, 0xFF	; 255
    1af0:	e1 ee       	ldi	r30, 0xE1	; 225
    1af2:	24 e0       	ldi	r18, 0x04	; 4
    1af4:	91 50       	subi	r25, 0x01	; 1
    1af6:	e0 40       	sbci	r30, 0x00	; 0
    1af8:	20 40       	sbci	r18, 0x00	; 0
    1afa:	e1 f7       	brne	.-8      	; 0x1af4 <reset_ymf825+0x3e>
    1afc:	00 c0       	rjmp	.+0      	; 0x1afe <reset_ymf825+0x48>
    1afe:	00 00       	nop
    1b00:	60 e0       	ldi	r22, 0x00	; 0
    1b02:	8d e1       	ldi	r24, 0x1D	; 29
    1b04:	1e df       	rcall	.-452    	; 0x1942 <if_s_write>
    1b06:	6e e0       	ldi	r22, 0x0E	; 14
    1b08:	82 e0       	ldi	r24, 0x02	; 2
    1b0a:	1b df       	rcall	.-458    	; 0x1942 <if_s_write>
    1b0c:	8f e9       	ldi	r24, 0x9F	; 159
    1b0e:	9f e0       	ldi	r25, 0x0F	; 15
    1b10:	01 97       	sbiw	r24, 0x01	; 1
    1b12:	f1 f7       	brne	.-4      	; 0x1b10 <reset_ymf825+0x5a>
    1b14:	00 c0       	rjmp	.+0      	; 0x1b16 <reset_ymf825+0x60>
    1b16:	00 00       	nop
    1b18:	61 e0       	ldi	r22, 0x01	; 1
    1b1a:	80 e0       	ldi	r24, 0x00	; 0
    1b1c:	12 df       	rcall	.-476    	; 0x1942 <if_s_write>
    1b1e:	60 e0       	ldi	r22, 0x00	; 0
    1b20:	81 e0       	ldi	r24, 0x01	; 1
    1b22:	0f df       	rcall	.-482    	; 0x1942 <if_s_write>
    1b24:	63 ea       	ldi	r22, 0xA3	; 163
    1b26:	8a e1       	ldi	r24, 0x1A	; 26
    1b28:	0c df       	rcall	.-488    	; 0x1942 <if_s_write>
    1b2a:	8f e9       	ldi	r24, 0x9F	; 159
    1b2c:	9f e0       	ldi	r25, 0x0F	; 15
    1b2e:	01 97       	sbiw	r24, 0x01	; 1
    1b30:	f1 f7       	brne	.-4      	; 0x1b2e <reset_ymf825+0x78>
    1b32:	00 c0       	rjmp	.+0      	; 0x1b34 <reset_ymf825+0x7e>
    1b34:	00 00       	nop
    1b36:	60 e0       	ldi	r22, 0x00	; 0
    1b38:	8a e1       	ldi	r24, 0x1A	; 26
    1b3a:	03 df       	rcall	.-506    	; 0x1942 <if_s_write>
    1b3c:	9f ef       	ldi	r25, 0xFF	; 255
    1b3e:	e6 e7       	ldi	r30, 0x76	; 118
    1b40:	21 e0       	ldi	r18, 0x01	; 1
    1b42:	91 50       	subi	r25, 0x01	; 1
    1b44:	e0 40       	sbci	r30, 0x00	; 0
    1b46:	20 40       	sbci	r18, 0x00	; 0
    1b48:	e1 f7       	brne	.-8      	; 0x1b42 <reset_ymf825+0x8c>
    1b4a:	00 c0       	rjmp	.+0      	; 0x1b4c <reset_ymf825+0x96>
    1b4c:	00 00       	nop
    1b4e:	60 e0       	ldi	r22, 0x00	; 0
    1b50:	82 e0       	ldi	r24, 0x02	; 2
    1b52:	f7 de       	rcall	.-530    	; 0x1942 <if_s_write>
    1b54:	6c ec       	ldi	r22, 0xCC	; 204
    1b56:	89 e1       	ldi	r24, 0x19	; 25
    1b58:	f4 de       	rcall	.-536    	; 0x1942 <if_s_write>
    1b5a:	6f e3       	ldi	r22, 0x3F	; 63
    1b5c:	8b e1       	ldi	r24, 0x1B	; 27
    1b5e:	f1 de       	rcall	.-542    	; 0x1942 <if_s_write>
    1b60:	60 e0       	ldi	r22, 0x00	; 0
    1b62:	8b e1       	ldi	r24, 0x1B	; 27
    1b64:	ee de       	rcall	.-548    	; 0x1942 <if_s_write>
    1b66:	60 e0       	ldi	r22, 0x00	; 0
    1b68:	84 e1       	ldi	r24, 0x14	; 20
    1b6a:	eb de       	rcall	.-554    	; 0x1942 <if_s_write>
    1b6c:	61 e0       	ldi	r22, 0x01	; 1
    1b6e:	83 e0       	ldi	r24, 0x03	; 3
    1b70:	e8 de       	rcall	.-560    	; 0x1942 <if_s_write>
    1b72:	66 ef       	ldi	r22, 0xF6	; 246
    1b74:	88 e0       	ldi	r24, 0x08	; 8
    1b76:	e5 de       	rcall	.-566    	; 0x1942 <if_s_write>
    1b78:	03 df       	rcall	.-506    	; 0x1980 <flush_spi_buff>
    1b7a:	8f e7       	ldi	r24, 0x7F	; 127
    1b7c:	96 e0       	ldi	r25, 0x06	; 6
    1b7e:	e1 e0       	ldi	r30, 0x01	; 1
    1b80:	81 50       	subi	r24, 0x01	; 1
    1b82:	90 40       	sbci	r25, 0x00	; 0
    1b84:	e0 40       	sbci	r30, 0x00	; 0
    1b86:	e1 f7       	brne	.-8      	; 0x1b80 <reset_ymf825+0xca>
    1b88:	00 c0       	rjmp	.+0      	; 0x1b8a <reset_ymf825+0xd4>
    1b8a:	00 00       	nop
    1b8c:	60 e0       	ldi	r22, 0x00	; 0
    1b8e:	88 e0       	ldi	r24, 0x08	; 8
    1b90:	d8 de       	rcall	.-592    	; 0x1942 <if_s_write>
    1b92:	68 ef       	ldi	r22, 0xF8	; 248
    1b94:	89 e0       	ldi	r24, 0x09	; 9
    1b96:	d5 de       	rcall	.-598    	; 0x1942 <if_s_write>
    1b98:	60 e0       	ldi	r22, 0x00	; 0
    1b9a:	8a e0       	ldi	r24, 0x0A	; 10
    1b9c:	d2 de       	rcall	.-604    	; 0x1942 <if_s_write>
    1b9e:	60 e4       	ldi	r22, 0x40	; 64
    1ba0:	87 e1       	ldi	r24, 0x17	; 23
    1ba2:	cf de       	rcall	.-610    	; 0x1942 <if_s_write>
    1ba4:	60 e0       	ldi	r22, 0x00	; 0
    1ba6:	88 e1       	ldi	r24, 0x18	; 24
    1ba8:	cc de       	rcall	.-616    	; 0x1942 <if_s_write>
    1baa:	6f e0       	ldi	r22, 0x0F	; 15
    1bac:	80 e2       	ldi	r24, 0x20	; 32
    1bae:	c9 de       	rcall	.-622    	; 0x1942 <if_s_write>
    1bb0:	e7 de       	rcall	.-562    	; 0x1980 <flush_spi_buff>
    1bb2:	25 e3       	ldi	r18, 0x35	; 53
    1bb4:	2a 95       	dec	r18
    1bb6:	f1 f7       	brne	.-4      	; 0x1bb4 <reset_ymf825+0xfe>
    1bb8:	00 00       	nop
    1bba:	6f e0       	ldi	r22, 0x0F	; 15
    1bbc:	81 e2       	ldi	r24, 0x21	; 33
    1bbe:	c1 de       	rcall	.-638    	; 0x1942 <if_s_write>
    1bc0:	df de       	rcall	.-578    	; 0x1980 <flush_spi_buff>
    1bc2:	85 e3       	ldi	r24, 0x35	; 53
    1bc4:	8a 95       	dec	r24
    1bc6:	f1 f7       	brne	.-4      	; 0x1bc4 <reset_ymf825+0x10e>
    1bc8:	00 00       	nop
    1bca:	6f e0       	ldi	r22, 0x0F	; 15
    1bcc:	82 e2       	ldi	r24, 0x22	; 34
    1bce:	b9 de       	rcall	.-654    	; 0x1942 <if_s_write>
    1bd0:	d7 de       	rcall	.-594    	; 0x1980 <flush_spi_buff>
    1bd2:	95 e3       	ldi	r25, 0x35	; 53
    1bd4:	9a 95       	dec	r25
    1bd6:	f1 f7       	brne	.-4      	; 0x1bd4 <reset_ymf825+0x11e>
    1bd8:	00 00       	nop
    1bda:	80 e0       	ldi	r24, 0x00	; 0
    1bdc:	90 e0       	ldi	r25, 0x00	; 0
    1bde:	71 e0       	ldi	r23, 0x01	; 1
    1be0:	0f 2e       	mov	r0, r31
    1be2:	f3 e8       	ldi	r31, 0x83	; 131
    1be4:	cf 2e       	mov	r12, r31
    1be6:	f0 2d       	mov	r31, r0
    1be8:	6f e7       	ldi	r22, 0x7F	; 127
    1bea:	0f 2e       	mov	r0, r31
    1bec:	f4 ef       	ldi	r31, 0xF4	; 244
    1bee:	df 2e       	mov	r13, r31
    1bf0:	f0 2d       	mov	r31, r0
    1bf2:	0f 2e       	mov	r0, r31
    1bf4:	fb eb       	ldi	r31, 0xBB	; 187
    1bf6:	ef 2e       	mov	r14, r31
    1bf8:	f0 2d       	mov	r31, r0
    1bfa:	30 e1       	ldi	r19, 0x10	; 16
    1bfc:	20 e4       	ldi	r18, 0x40	; 64
    1bfe:	0f 2e       	mov	r0, r31
    1c00:	ff ea       	ldi	r31, 0xAF	; 175
    1c02:	ff 2e       	mov	r15, r31
    1c04:	f0 2d       	mov	r31, r0
    1c06:	50 ea       	ldi	r21, 0xA0	; 160
    1c08:	4e e0       	ldi	r20, 0x0E	; 14
    1c0a:	03 e0       	ldi	r16, 0x03	; 3
    1c0c:	1f e2       	ldi	r17, 0x2F	; 47
    1c0e:	d3 ef       	ldi	r29, 0xF3	; 243
    1c10:	cb e9       	ldi	r28, 0x9B	; 155
    1c12:	b0 e2       	ldi	r27, 0x20	; 32
    1c14:	a1 e4       	ldi	r26, 0x41	; 65
    1c16:	fc 01       	movw	r30, r24
    1c18:	e1 5a       	subi	r30, 0xA1	; 161
    1c1a:	fc 4f       	sbci	r31, 0xFC	; 252
    1c1c:	70 83       	st	Z, r23
    1c1e:	c1 82       	std	Z+1, r12	; 0x01
    1c20:	12 82       	std	Z+2, r1	; 0x02
    1c22:	63 83       	std	Z+3, r22	; 0x03
    1c24:	d4 82       	std	Z+4, r13	; 0x04
    1c26:	e5 82       	std	Z+5, r14	; 0x05
    1c28:	16 82       	std	Z+6, r1	; 0x06
    1c2a:	37 83       	std	Z+7, r19	; 0x07
    1c2c:	20 87       	std	Z+8, r18	; 0x08
    1c2e:	11 86       	std	Z+9, r1	; 0x09
    1c30:	f2 86       	std	Z+10, r15	; 0x0a
    1c32:	53 87       	std	Z+11, r21	; 0x0b
    1c34:	44 87       	std	Z+12, r20	; 0x0c
    1c36:	05 87       	std	Z+13, r16	; 0x0d
    1c38:	36 87       	std	Z+14, r19	; 0x0e
    1c3a:	27 87       	std	Z+15, r18	; 0x0f
    1c3c:	10 8a       	std	Z+16, r1	; 0x10
    1c3e:	11 8b       	std	Z+17, r17	; 0x11
    1c40:	d2 8b       	std	Z+18, r29	; 0x12
    1c42:	c3 8b       	std	Z+19, r28	; 0x13
    1c44:	14 8a       	std	Z+20, r1	; 0x14
    1c46:	b5 8b       	std	Z+21, r27	; 0x15
    1c48:	a6 8b       	std	Z+22, r26	; 0x16
    1c4a:	17 8a       	std	Z+23, r1	; 0x17
    1c4c:	60 8f       	std	Z+24, r22	; 0x18
    1c4e:	51 8f       	std	Z+25, r21	; 0x19
    1c50:	42 8f       	std	Z+26, r20	; 0x1a
    1c52:	73 8f       	std	Z+27, r23	; 0x1b
    1c54:	34 8f       	std	Z+28, r19	; 0x1c
    1c56:	25 8f       	std	Z+29, r18	; 0x1d
    1c58:	4e 96       	adiw	r24, 0x1e	; 30
    1c5a:	80 3e       	cpi	r24, 0xE0	; 224
    1c5c:	e1 e0       	ldi	r30, 0x01	; 1
    1c5e:	9e 07       	cpc	r25, r30
    1c60:	d1 f6       	brne	.-76     	; 0x1c16 <reset_ymf825+0x160>
    1c62:	c8 d4       	rcall	.+2448   	; 0x25f4 <write_burst>
    1c64:	2f ef       	ldi	r18, 0xFF	; 255
    1c66:	80 e7       	ldi	r24, 0x70	; 112
    1c68:	92 e0       	ldi	r25, 0x02	; 2
    1c6a:	21 50       	subi	r18, 0x01	; 1
    1c6c:	80 40       	sbci	r24, 0x00	; 0
    1c6e:	90 40       	sbci	r25, 0x00	; 0
    1c70:	e1 f7       	brne	.-8      	; 0x1c6a <reset_ymf825+0x1b4>
    1c72:	00 c0       	rjmp	.+0      	; 0x1c74 <reset_ymf825+0x1be>
    1c74:	00 00       	nop
    1c76:	61 e1       	ldi	r22, 0x11	; 17
    1c78:	8c e1       	ldi	r24, 0x1C	; 28
    1c7a:	c4 de       	rcall	.-632    	; 0x1a04 <keyon>
    1c7c:	ef ef       	ldi	r30, 0xFF	; 255
    1c7e:	26 e7       	ldi	r18, 0x76	; 118
    1c80:	81 e0       	ldi	r24, 0x01	; 1
    1c82:	e1 50       	subi	r30, 0x01	; 1
    1c84:	20 40       	sbci	r18, 0x00	; 0
    1c86:	80 40       	sbci	r24, 0x00	; 0
    1c88:	e1 f7       	brne	.-8      	; 0x1c82 <reset_ymf825+0x1cc>
    1c8a:	00 c0       	rjmp	.+0      	; 0x1c8c <reset_ymf825+0x1d6>
    1c8c:	00 00       	nop
    1c8e:	d0 de       	rcall	.-608    	; 0x1a30 <keyoff>
    1c90:	8f e3       	ldi	r24, 0x3F	; 63
    1c92:	9c e9       	ldi	r25, 0x9C	; 156
    1c94:	01 97       	sbiw	r24, 0x01	; 1
    1c96:	f1 f7       	brne	.-4      	; 0x1c94 <reset_ymf825+0x1de>
    1c98:	00 c0       	rjmp	.+0      	; 0x1c9a <reset_ymf825+0x1e4>
    1c9a:	00 00       	nop
    1c9c:	62 e4       	ldi	r22, 0x42	; 66
    1c9e:	8c e1       	ldi	r24, 0x1C	; 28
    1ca0:	b1 de       	rcall	.-670    	; 0x1a04 <keyon>
    1ca2:	9f ef       	ldi	r25, 0xFF	; 255
    1ca4:	e6 e7       	ldi	r30, 0x76	; 118
    1ca6:	21 e0       	ldi	r18, 0x01	; 1
    1ca8:	91 50       	subi	r25, 0x01	; 1
    1caa:	e0 40       	sbci	r30, 0x00	; 0
    1cac:	20 40       	sbci	r18, 0x00	; 0
    1cae:	e1 f7       	brne	.-8      	; 0x1ca8 <reset_ymf825+0x1f2>
    1cb0:	00 c0       	rjmp	.+0      	; 0x1cb2 <reset_ymf825+0x1fc>
    1cb2:	00 00       	nop
    1cb4:	bd de       	rcall	.-646    	; 0x1a30 <keyoff>
    1cb6:	8f e3       	ldi	r24, 0x3F	; 63
    1cb8:	9c e9       	ldi	r25, 0x9C	; 156
    1cba:	01 97       	sbiw	r24, 0x01	; 1
    1cbc:	f1 f7       	brne	.-4      	; 0x1cba <reset_ymf825+0x204>
    1cbe:	00 c0       	rjmp	.+0      	; 0x1cc0 <reset_ymf825+0x20a>
    1cc0:	00 00       	nop
    1cc2:	6d e5       	ldi	r22, 0x5D	; 93
    1cc4:	8c e1       	ldi	r24, 0x1C	; 28
    1cc6:	9e de       	rcall	.-708    	; 0x1a04 <keyon>
    1cc8:	9f ef       	ldi	r25, 0xFF	; 255
    1cca:	e6 e7       	ldi	r30, 0x76	; 118
    1ccc:	21 e0       	ldi	r18, 0x01	; 1
    1cce:	91 50       	subi	r25, 0x01	; 1
    1cd0:	e0 40       	sbci	r30, 0x00	; 0
    1cd2:	20 40       	sbci	r18, 0x00	; 0
    1cd4:	e1 f7       	brne	.-8      	; 0x1cce <reset_ymf825+0x218>
    1cd6:	00 c0       	rjmp	.+0      	; 0x1cd8 <reset_ymf825+0x222>
    1cd8:	00 00       	nop
    1cda:	aa de       	rcall	.-684    	; 0x1a30 <keyoff>
    1cdc:	8f e3       	ldi	r24, 0x3F	; 63
    1cde:	9c e9       	ldi	r25, 0x9C	; 156
    1ce0:	01 97       	sbiw	r24, 0x01	; 1
    1ce2:	f1 f7       	brne	.-4      	; 0x1ce0 <reset_ymf825+0x22a>
    1ce4:	00 c0       	rjmp	.+0      	; 0x1ce6 <reset_ymf825+0x230>
    1ce6:	00 00       	nop
    1ce8:	67 e1       	ldi	r22, 0x17	; 23
    1cea:	84 e2       	ldi	r24, 0x24	; 36
    1cec:	8b de       	rcall	.-746    	; 0x1a04 <keyon>
    1cee:	9f ef       	ldi	r25, 0xFF	; 255
    1cf0:	e6 e7       	ldi	r30, 0x76	; 118
    1cf2:	21 e0       	ldi	r18, 0x01	; 1
    1cf4:	91 50       	subi	r25, 0x01	; 1
    1cf6:	e0 40       	sbci	r30, 0x00	; 0
    1cf8:	20 40       	sbci	r18, 0x00	; 0
    1cfa:	e1 f7       	brne	.-8      	; 0x1cf4 <reset_ymf825+0x23e>
    1cfc:	00 c0       	rjmp	.+0      	; 0x1cfe <reset_ymf825+0x248>
    1cfe:	00 00       	nop
    1d00:	97 de       	rcall	.-722    	; 0x1a30 <keyoff>
    1d02:	8f e3       	ldi	r24, 0x3F	; 63
    1d04:	9c e9       	ldi	r25, 0x9C	; 156
    1d06:	01 97       	sbiw	r24, 0x01	; 1
    1d08:	f1 f7       	brne	.-4      	; 0x1d06 <reset_ymf825+0x250>
    1d0a:	00 c0       	rjmp	.+0      	; 0x1d0c <reset_ymf825+0x256>
    1d0c:	00 00       	nop
    1d0e:	df 91       	pop	r29
    1d10:	cf 91       	pop	r28
    1d12:	1f 91       	pop	r17
    1d14:	0f 91       	pop	r16
    1d16:	ff 90       	pop	r15
    1d18:	ef 90       	pop	r14
    1d1a:	df 90       	pop	r13
    1d1c:	cf 90       	pop	r12
    1d1e:	08 95       	ret

00001d20 <usart_spi_init>:
    1d20:	80 ed       	ldi	r24, 0xD0	; 208
    1d22:	8c bd       	out	0x2c, r24	; 44
    1d24:	81 e0       	ldi	r24, 0x01	; 1
    1d26:	8d bd       	out	0x2d, r24	; 45
    1d28:	8e b5       	in	r24, 0x2e	; 46
    1d2a:	08 95       	ret

00001d2c <SetupHardware>:
    1d2c:	84 b7       	in	r24, 0x34	; 52
    1d2e:	87 7f       	andi	r24, 0xF7	; 247
    1d30:	84 bf       	out	0x34, r24	; 52
    1d32:	88 e1       	ldi	r24, 0x18	; 24
    1d34:	0f b6       	in	r0, 0x3f	; 63
    1d36:	f8 94       	cli
    1d38:	80 93 60 00 	sts	0x0060, r24
    1d3c:	10 92 60 00 	sts	0x0060, r1
    1d40:	0f be       	out	0x3f, r0	; 63
    1d42:	90 e0       	ldi	r25, 0x00	; 0
    1d44:	80 e8       	ldi	r24, 0x80	; 128
    1d46:	0f b6       	in	r0, 0x3f	; 63
    1d48:	f8 94       	cli
    1d4a:	80 93 61 00 	sts	0x0061, r24
    1d4e:	90 93 61 00 	sts	0x0061, r25
    1d52:	0f be       	out	0x3f, r0	; 63
    1d54:	e1 e6       	ldi	r30, 0x61	; 97
    1d56:	f0 e0       	ldi	r31, 0x00	; 0
    1d58:	80 83       	st	Z, r24
    1d5a:	10 82       	st	Z, r1
    1d5c:	0e 94 2b 1a 	call	0x3456	; 0x3456 <USB_Init>
    1d60:	2f ef       	ldi	r18, 0xFF	; 255
    1d62:	80 e7       	ldi	r24, 0x70	; 112
    1d64:	92 e0       	ldi	r25, 0x02	; 2
    1d66:	21 50       	subi	r18, 0x01	; 1
    1d68:	80 40       	sbci	r24, 0x00	; 0
    1d6a:	90 40       	sbci	r25, 0x00	; 0
    1d6c:	e1 f7       	brne	.-8      	; 0x1d66 <SetupHardware+0x3a>
    1d6e:	00 c0       	rjmp	.+0      	; 0x1d70 <SetupHardware+0x44>
    1d70:	00 00       	nop
    1d72:	d6 df       	rcall	.-84     	; 0x1d20 <usart_spi_init>
    1d74:	2f e7       	ldi	r18, 0x7F	; 127
    1d76:	86 e7       	ldi	r24, 0x76	; 118
    1d78:	98 e1       	ldi	r25, 0x18	; 24
    1d7a:	21 50       	subi	r18, 0x01	; 1
    1d7c:	80 40       	sbci	r24, 0x00	; 0
    1d7e:	90 40       	sbci	r25, 0x00	; 0
    1d80:	e1 f7       	brne	.-8      	; 0x1d7a <SetupHardware+0x4e>
    1d82:	00 c0       	rjmp	.+0      	; 0x1d84 <SetupHardware+0x58>
    1d84:	00 00       	nop
    1d86:	97 de       	rcall	.-722    	; 0x1ab6 <reset_ymf825>
    1d88:	2f ef       	ldi	r18, 0xFF	; 255
    1d8a:	81 ee       	ldi	r24, 0xE1	; 225
    1d8c:	94 e0       	ldi	r25, 0x04	; 4
    1d8e:	21 50       	subi	r18, 0x01	; 1
    1d90:	80 40       	sbci	r24, 0x00	; 0
    1d92:	90 40       	sbci	r25, 0x00	; 0
    1d94:	e1 f7       	brne	.-8      	; 0x1d8e <SetupHardware+0x62>
    1d96:	00 c0       	rjmp	.+0      	; 0x1d98 <SetupHardware+0x6c>
    1d98:	00 00       	nop
    1d9a:	5c ce       	rjmp	.-840    	; 0x1a54 <setChannelDefault>
    1d9c:	08 95       	ret

00001d9e <check_midimessage>:
}


void check_midimessage(){
    1d9e:	cf 92       	push	r12
    1da0:	df 92       	push	r13
    1da2:	ef 92       	push	r14
    1da4:	ff 92       	push	r15
    1da6:	0f 93       	push	r16
    1da8:	1f 93       	push	r17
    1daa:	cf 93       	push	r28
    1dac:	df 93       	push	r29
    1dae:	00 d0       	rcall	.+0      	; 0x1db0 <check_midimessage+0x12>
    1db0:	00 d0       	rcall	.+0      	; 0x1db2 <check_midimessage+0x14>
    1db2:	cd b7       	in	r28, 0x3d	; 61
    1db4:	de b7       	in	r29, 0x3e	; 62
	MIDI_EventPacket_t MIDIEvent;
	uint8_t MIDICommand;

	uint8_t dat1,dat2;
	if(send_cnt == 0)
    1db6:	80 91 00 03 	lds	r24, 0x0300
    1dba:	88 23       	and	r24, r24
    1dbc:	09 f4       	brne	.+2      	; 0x1dc0 <check_midimessage+0x22>
    1dbe:	b6 c0       	rjmp	.+364    	; 0x1f2c <check_midimessage+0x18e>
		return;
	

	send_cnt = 30;	
    1dc0:	8e e1       	ldi	r24, 0x1E	; 30
    1dc2:	80 93 00 03 	sts	0x0300, r24
	MIDICommand = MIDI_COMMAND_SYSEX_START_3BYTE;
	dat1 = eeprom_read_byte( (uint8_t*)(eeprom_p_midi ++));	
    1dc6:	80 91 04 03 	lds	r24, 0x0304
    1dca:	90 91 05 03 	lds	r25, 0x0305
    1dce:	9c 01       	movw	r18, r24
    1dd0:	2f 5f       	subi	r18, 0xFF	; 255
    1dd2:	3f 4f       	sbci	r19, 0xFF	; 255
    1dd4:	30 93 05 03 	sts	0x0305, r19
    1dd8:	20 93 04 03 	sts	0x0304, r18
    1ddc:	0e 94 97 1c 	call	0x392e	; 0x392e <__eerd_byte_m32u4>
	MIDIEvent = (MIDI_EventPacket_t)
    1de0:	94 e1       	ldi	r25, 0x14	; 20
    1de2:	99 83       	std	Y+1, r25	; 0x01
    1de4:	90 ef       	ldi	r25, 0xF0	; 240
    1de6:	9a 83       	std	Y+2, r25	; 0x02
    1de8:	98 2f       	mov	r25, r24
    1dea:	92 95       	swap	r25
    1dec:	9f 70       	andi	r25, 0x0F	; 15
    1dee:	9b 83       	std	Y+3, r25	; 0x03
    1df0:	8f 70       	andi	r24, 0x0F	; 15
    1df2:	8c 83       	std	Y+4, r24	; 0x04

		.Data1       = 0xF0,
		.Data2       = (dat1 >> 4),
		.Data3       = dat1 & 0x0f,
	};
	send_cnt--;
    1df4:	8d e1       	ldi	r24, 0x1D	; 29
    1df6:	80 93 00 03 	sts	0x0300, r24
	MIDI_Device_SendEventPacket(&Keyboard_MIDI_Interface, &MIDIEvent);
    1dfa:	be 01       	movw	r22, r28
    1dfc:	6f 5f       	subi	r22, 0xFF	; 255
    1dfe:	7f 4f       	sbci	r23, 0xFF	; 255
    1e00:	83 e0       	ldi	r24, 0x03	; 3
    1e02:	91 e0       	ldi	r25, 0x01	; 1
    1e04:	87 d7       	rcall	.+3854   	; 0x2d14 <MIDI_Device_SendEventPacket>
		dat1 = eeprom_read_byte( (uint8_t*)(eeprom_p_midi ++));	
		dat2= eeprom_read_byte( (uint8_t*)(eeprom_p_midi ++));
	
		MIDICommand = MIDI_COMMAND_SYSEX_3BYTE;

		MIDIEvent = (MIDI_EventPacket_t)
    1e06:	0f 2e       	mov	r0, r31
    1e08:	f3 e1       	ldi	r31, 0x13	; 19
    1e0a:	cf 2e       	mov	r12, r31
    1e0c:	f0 2d       	mov	r31, r0
	send_cnt--;
	MIDI_Device_SendEventPacket(&Keyboard_MIDI_Interface, &MIDIEvent);
	
	do{

		dat1 = eeprom_read_byte( (uint8_t*)(eeprom_p_midi ++));	
    1e0e:	00 91 04 03 	lds	r16, 0x0304
    1e12:	10 91 05 03 	lds	r17, 0x0305
    1e16:	78 01       	movw	r14, r16
    1e18:	8f ef       	ldi	r24, 0xFF	; 255
    1e1a:	e8 1a       	sub	r14, r24
    1e1c:	f8 0a       	sbc	r15, r24
    1e1e:	f0 92 05 03 	sts	0x0305, r15
    1e22:	e0 92 04 03 	sts	0x0304, r14
    1e26:	c8 01       	movw	r24, r16
    1e28:	0e 94 97 1c 	call	0x392e	; 0x392e <__eerd_byte_m32u4>
    1e2c:	d8 2e       	mov	r13, r24
		dat2= eeprom_read_byte( (uint8_t*)(eeprom_p_midi ++));
    1e2e:	0e 5f       	subi	r16, 0xFE	; 254
    1e30:	1f 4f       	sbci	r17, 0xFF	; 255
    1e32:	10 93 05 03 	sts	0x0305, r17
    1e36:	00 93 04 03 	sts	0x0304, r16
    1e3a:	c7 01       	movw	r24, r14
    1e3c:	0e 94 97 1c 	call	0x392e	; 0x392e <__eerd_byte_m32u4>
    1e40:	18 2f       	mov	r17, r24
	
		MIDICommand = MIDI_COMMAND_SYSEX_3BYTE;

		MIDIEvent = (MIDI_EventPacket_t)
    1e42:	c9 82       	std	Y+1, r12	; 0x01
    1e44:	8d 2d       	mov	r24, r13
    1e46:	82 95       	swap	r24
    1e48:	8f 70       	andi	r24, 0x0F	; 15
    1e4a:	8a 83       	std	Y+2, r24	; 0x02
    1e4c:	8d 2d       	mov	r24, r13
    1e4e:	8f 70       	andi	r24, 0x0F	; 15
    1e50:	8b 83       	std	Y+3, r24	; 0x03
    1e52:	81 2f       	mov	r24, r17
    1e54:	82 95       	swap	r24
    1e56:	8f 70       	andi	r24, 0x0F	; 15
    1e58:	8c 83       	std	Y+4, r24	; 0x04

			.Data1       = (dat1 >> 4),
			.Data2       = dat1 & 0x0f,
			.Data3       = (dat2 >> 4),
		};
		MIDI_Device_SendEventPacket(&Keyboard_MIDI_Interface, &MIDIEvent);
    1e5a:	be 01       	movw	r22, r28
    1e5c:	6f 5f       	subi	r22, 0xFF	; 255
    1e5e:	7f 4f       	sbci	r23, 0xFF	; 255
    1e60:	83 e0       	ldi	r24, 0x03	; 3
    1e62:	91 e0       	ldi	r25, 0x01	; 1
    1e64:	57 d7       	rcall	.+3758   	; 0x2d14 <MIDI_Device_SendEventPacket>

		dat1 = eeprom_read_byte( (uint8_t*)(eeprom_p_midi ++));	
    1e66:	80 91 04 03 	lds	r24, 0x0304
    1e6a:	90 91 05 03 	lds	r25, 0x0305
    1e6e:	ac 01       	movw	r20, r24
    1e70:	4f 5f       	subi	r20, 0xFF	; 255
    1e72:	5f 4f       	sbci	r21, 0xFF	; 255
    1e74:	50 93 05 03 	sts	0x0305, r21
    1e78:	40 93 04 03 	sts	0x0304, r20
    1e7c:	0e 94 97 1c 	call	0x392e	; 0x392e <__eerd_byte_m32u4>
		MIDIEvent = (MIDI_EventPacket_t)
    1e80:	c9 82       	std	Y+1, r12	; 0x01
    1e82:	1f 70       	andi	r17, 0x0F	; 15
    1e84:	1a 83       	std	Y+2, r17	; 0x02
    1e86:	98 2f       	mov	r25, r24
    1e88:	92 95       	swap	r25
    1e8a:	9f 70       	andi	r25, 0x0F	; 15
    1e8c:	9b 83       	std	Y+3, r25	; 0x03
    1e8e:	8f 70       	andi	r24, 0x0F	; 15
    1e90:	8c 83       	std	Y+4, r24	; 0x04

			.Data1       = dat2 & 0x0f,
			.Data2       = (dat1 >>4),
			.Data3       = dat1 & 0x0f,
		};
		MIDI_Device_SendEventPacket(&Keyboard_MIDI_Interface, &MIDIEvent);
    1e92:	be 01       	movw	r22, r28
    1e94:	6f 5f       	subi	r22, 0xFF	; 255
    1e96:	7f 4f       	sbci	r23, 0xFF	; 255
    1e98:	83 e0       	ldi	r24, 0x03	; 3
    1e9a:	91 e0       	ldi	r25, 0x01	; 1
    1e9c:	3b d7       	rcall	.+3702   	; 0x2d14 <MIDI_Device_SendEventPacket>
			
		send_cnt = send_cnt -3;
    1e9e:	80 91 00 03 	lds	r24, 0x0300
    1ea2:	83 50       	subi	r24, 0x03	; 3
    1ea4:	80 93 00 03 	sts	0x0300, r24
	}while(send_cnt > 2);
    1ea8:	83 30       	cpi	r24, 0x03	; 3
    1eaa:	08 f0       	brcs	.+2      	; 0x1eae <check_midimessage+0x110>
    1eac:	b0 cf       	rjmp	.-160    	; 0x1e0e <check_midimessage+0x70>
	send_cnt = 0;
    1eae:	10 92 00 03 	sts	0x0300, r1

	dat1 = eeprom_read_byte( (uint8_t*)(eeprom_p_midi ++));	
    1eb2:	00 91 04 03 	lds	r16, 0x0304
    1eb6:	10 91 05 03 	lds	r17, 0x0305
    1eba:	78 01       	movw	r14, r16
    1ebc:	8f ef       	ldi	r24, 0xFF	; 255
    1ebe:	e8 1a       	sub	r14, r24
    1ec0:	f8 0a       	sbc	r15, r24
    1ec2:	f0 92 05 03 	sts	0x0305, r15
    1ec6:	e0 92 04 03 	sts	0x0304, r14
    1eca:	c8 01       	movw	r24, r16
    1ecc:	0e 94 97 1c 	call	0x392e	; 0x392e <__eerd_byte_m32u4>
    1ed0:	d8 2e       	mov	r13, r24
	dat2= eeprom_read_byte( (uint8_t*)(eeprom_p_midi ++));
    1ed2:	0e 5f       	subi	r16, 0xFE	; 254
    1ed4:	1f 4f       	sbci	r17, 0xFF	; 255
    1ed6:	10 93 05 03 	sts	0x0305, r17
    1eda:	00 93 04 03 	sts	0x0304, r16
    1ede:	c7 01       	movw	r24, r14
    1ee0:	0e 94 97 1c 	call	0x392e	; 0x392e <__eerd_byte_m32u4>
    1ee4:	18 2f       	mov	r17, r24
	
	MIDIEvent = (MIDI_EventPacket_t)
    1ee6:	83 e1       	ldi	r24, 0x13	; 19
    1ee8:	89 83       	std	Y+1, r24	; 0x01
    1eea:	8d 2d       	mov	r24, r13
    1eec:	82 95       	swap	r24
    1eee:	8f 70       	andi	r24, 0x0F	; 15
    1ef0:	8a 83       	std	Y+2, r24	; 0x02
    1ef2:	8d 2d       	mov	r24, r13
    1ef4:	8f 70       	andi	r24, 0x0F	; 15
    1ef6:	8b 83       	std	Y+3, r24	; 0x03
    1ef8:	81 2f       	mov	r24, r17
    1efa:	82 95       	swap	r24
    1efc:	8f 70       	andi	r24, 0x0F	; 15
    1efe:	8c 83       	std	Y+4, r24	; 0x04

		.Data1       = (dat1 >> 4),
		.Data2       = dat1 & 0x0f,
		.Data3       = (dat2 >> 4),
	};
	MIDI_Device_SendEventPacket(&Keyboard_MIDI_Interface, &MIDIEvent);
    1f00:	be 01       	movw	r22, r28
    1f02:	6f 5f       	subi	r22, 0xFF	; 255
    1f04:	7f 4f       	sbci	r23, 0xFF	; 255
    1f06:	83 e0       	ldi	r24, 0x03	; 3
    1f08:	91 e0       	ldi	r25, 0x01	; 1
    1f0a:	04 d7       	rcall	.+3592   	; 0x2d14 <MIDI_Device_SendEventPacket>
	
	MIDICommand = MIDI_COMMAND_SYSEX_END_3BYTE;
	MIDIEvent = (MIDI_EventPacket_t)
    1f0c:	87 e1       	ldi	r24, 0x17	; 23
    1f0e:	89 83       	std	Y+1, r24	; 0x01
    1f10:	1f 70       	andi	r17, 0x0F	; 15
    1f12:	1a 83       	std	Y+2, r17	; 0x02
    1f14:	1b 82       	std	Y+3, r1	; 0x03
    1f16:	87 ef       	ldi	r24, 0xF7	; 247
    1f18:	8c 83       	std	Y+4, r24	; 0x04

		.Data1       = dat2 & 0x0f,
		.Data2       = 0,
		.Data3       = 0xf7,
	};
	MIDI_Device_SendEventPacket(&Keyboard_MIDI_Interface, &MIDIEvent);
    1f1a:	be 01       	movw	r22, r28
    1f1c:	6f 5f       	subi	r22, 0xFF	; 255
    1f1e:	7f 4f       	sbci	r23, 0xFF	; 255
    1f20:	83 e0       	ldi	r24, 0x03	; 3
    1f22:	91 e0       	ldi	r25, 0x01	; 1
    1f24:	f7 d6       	rcall	.+3566   	; 0x2d14 <MIDI_Device_SendEventPacket>
	MIDI_Device_Flush(&Keyboard_MIDI_Interface);
    1f26:	83 e0       	ldi	r24, 0x03	; 3
    1f28:	91 e0       	ldi	r25, 0x01	; 1
    1f2a:	15 d7       	rcall	.+3626   	; 0x2d56 <MIDI_Device_Flush>

	//PORTC ^= 0x80;


}
    1f2c:	0f 90       	pop	r0
    1f2e:	0f 90       	pop	r0
    1f30:	0f 90       	pop	r0
    1f32:	0f 90       	pop	r0
    1f34:	df 91       	pop	r29
    1f36:	cf 91       	pop	r28
    1f38:	1f 91       	pop	r17
    1f3a:	0f 91       	pop	r16
    1f3c:	ff 90       	pop	r15
    1f3e:	ef 90       	pop	r14
    1f40:	df 90       	pop	r13
    1f42:	cf 90       	pop	r12
    1f44:	08 95       	ret

00001f46 <main>:

/** Main program entry point. This routine contains the overall program flow, including initial
 *  setup of all components and the main program loop.
 */
int main(void)
{
    1f46:	cf 93       	push	r28
    1f48:	df 93       	push	r29
    1f4a:	00 d0       	rcall	.+0      	; 0x1f4c <main+0x6>
    1f4c:	00 d0       	rcall	.+0      	; 0x1f4e <main+0x8>
    1f4e:	cd b7       	in	r28, 0x3d	; 61
    1f50:	de b7       	in	r29, 0x3e	; 62
	
		//CLKPR = 0x80;
		//CLKPR = 0;
		DDRB = 0xf7;
    1f52:	87 ef       	ldi	r24, 0xF7	; 247
    1f54:	84 b9       	out	0x04, r24	; 4
		DDRC = 0xff;
    1f56:	8f ef       	ldi	r24, 0xFF	; 255
    1f58:	87 b9       	out	0x07, r24	; 7
		DDRD = 0xfb;
    1f5a:	9b ef       	ldi	r25, 0xFB	; 251
    1f5c:	9a b9       	out	0x0a, r25	; 10
		DDRF = 0xff;
    1f5e:	80 bb       	out	0x10, r24	; 16
		int f;
		int ch;
		int adr;
		char Data[4];
		//int oadr;
	SetupHardware();
    1f60:	e5 de       	rcall	.-566    	; 0x1d2c <SetupHardware>
			static inline void GlobalInterruptEnable(void)
			{
				GCC_MEMORY_BARRIER();

				#if (ARCH == ARCH_AVR8)
				sei();
    1f62:	78 94       	sei
				__builtin_csrf(AVR32_SR_GM_OFFSET);
				#elif (ARCH == ARCH_XMEGA)
				sei();
				#endif

				GCC_MEMORY_BARRIER();
    1f64:	0f 2e       	mov	r0, r31
    1f66:	ff e3       	ldi	r31, 0x3F	; 63
    1f68:	cf 2e       	mov	r12, r31
    1f6a:	f5 e0       	ldi	r31, 0x05	; 5
    1f6c:	df 2e       	mov	r13, r31
    1f6e:	f0 2d       	mov	r31, r0
    1f70:	0f 2e       	mov	r0, r31
    1f72:	ff e4       	ldi	r31, 0x4F	; 79
    1f74:	ef 2e       	mov	r14, r31
    1f76:	f3 e0       	ldi	r31, 0x03	; 3
    1f78:	ff 2e       	mov	r15, r31
    1f7a:	f0 2d       	mov	r31, r0
			

			if((ReceivedMIDIEvent.Event == MIDI_EVENT(0,MIDI_COMMAND_SYSEX_END_1BYTE)
			||  ReceivedMIDIEvent.Event == MIDI_EVENT(0,MIDI_COMMAND_SYSEX_END_2BYTE)
			||  ReceivedMIDIEvent.Event == MIDI_EVENT(0,MIDI_COMMAND_SYSEX_END_3BYTE))){
				sysex_mes[3] = ReceivedMIDIEvent.Data1;
    1f7c:	0f 2e       	mov	r0, r31
    1f7e:	f9 e0       	ldi	r31, 0x09	; 9
    1f80:	6f 2e       	mov	r6, r31
    1f82:	f3 e0       	ldi	r31, 0x03	; 3
    1f84:	7f 2e       	mov	r7, r31
    1f86:	f0 2d       	mov	r31, r0
				sysex_mes[4] = ReceivedMIDIEvent.Data2;
    1f88:	0f 2e       	mov	r0, r31
    1f8a:	fa e0       	ldi	r31, 0x0A	; 10
    1f8c:	4f 2e       	mov	r4, r31
    1f8e:	f3 e0       	ldi	r31, 0x03	; 3
    1f90:	5f 2e       	mov	r5, r31
    1f92:	f0 2d       	mov	r31, r0
				sysex_mes[5] = ReceivedMIDIEvent.Data3;
    1f94:	0f 2e       	mov	r0, r31
    1f96:	fb e0       	ldi	r31, 0x0B	; 11
    1f98:	2f 2e       	mov	r2, r31
    1f9a:	f3 e0       	ldi	r31, 0x03	; 3
    1f9c:	3f 2e       	mov	r3, r31
    1f9e:	f0 2d       	mov	r31, r0
    1fa0:	14 c3       	rjmp	.+1576   	; 0x25ca <main+0x684>
		
		while (MIDI_Device_ReceiveEventPacket(&Keyboard_MIDI_Interface, &ReceivedMIDIEvent))
		{
			
			
			if((ReceivedMIDIEvent.Event == MIDI_EVENT(1,MIDI_COMMAND_SYSEX_START_3BYTE))){
    1fa2:	89 81       	ldd	r24, Y+1	; 0x01
    1fa4:	84 31       	cpi	r24, 0x14	; 20
    1fa6:	c9 f4       	brne	.+50     	; 0x1fda <main+0x94>
				//えくるしーぶメッセージ
				// message
				// 0xf0  channel, operator No, Type, value 0xf7
			
				if(ReceivedMIDIEvent.Data1 == 0xf0){
    1fa8:	2a 81       	ldd	r18, Y+2	; 0x02
    1faa:	20 3f       	cpi	r18, 0xF0	; 240
    1fac:	21 f4       	brne	.+8      	; 0x1fb6 <main+0x70>
					sysx_mes_pos = 0;
    1fae:	10 92 01 03 	sts	0x0301, r1
    1fb2:	10 92 02 03 	sts	0x0302, r1
				}
				
				sysex_mes[sysx_mes_pos++] = ReceivedMIDIEvent.Data1;
    1fb6:	80 91 01 03 	lds	r24, 0x0301
    1fba:	90 91 02 03 	lds	r25, 0x0302
    1fbe:	fc 01       	movw	r30, r24
    1fc0:	ea 5f       	subi	r30, 0xFA	; 250
    1fc2:	fc 4f       	sbci	r31, 0xFC	; 252
    1fc4:	20 83       	st	Z, r18
				sysex_mes[sysx_mes_pos++] = ReceivedMIDIEvent.Data2;
    1fc6:	2b 81       	ldd	r18, Y+3	; 0x03
    1fc8:	21 83       	std	Z+1, r18	; 0x01
				sysex_mes[sysx_mes_pos++] = ReceivedMIDIEvent.Data3;
    1fca:	03 96       	adiw	r24, 0x03	; 3
    1fcc:	90 93 02 03 	sts	0x0302, r25
    1fd0:	80 93 01 03 	sts	0x0301, r24
    1fd4:	8c 81       	ldd	r24, Y+4	; 0x04
    1fd6:	82 83       	std	Z+2, r24	; 0x02
    1fd8:	d8 c0       	rjmp	.+432    	; 0x218a <main+0x244>
				
			}else if((ReceivedMIDIEvent.Event == MIDI_EVENT(1,MIDI_COMMAND_SYSEX_3BYTE))){
    1fda:	83 31       	cpi	r24, 0x13	; 19
    1fdc:	99 f4       	brne	.+38     	; 0x2004 <main+0xbe>
				sysex_mes[sysx_mes_pos++] = ReceivedMIDIEvent.Data1;
    1fde:	80 91 01 03 	lds	r24, 0x0301
    1fe2:	90 91 02 03 	lds	r25, 0x0302
    1fe6:	fc 01       	movw	r30, r24
    1fe8:	ea 5f       	subi	r30, 0xFA	; 250
    1fea:	fc 4f       	sbci	r31, 0xFC	; 252
    1fec:	2a 81       	ldd	r18, Y+2	; 0x02
    1fee:	20 83       	st	Z, r18
				sysex_mes[sysx_mes_pos++] = ReceivedMIDIEvent.Data2;
    1ff0:	2b 81       	ldd	r18, Y+3	; 0x03
    1ff2:	21 83       	std	Z+1, r18	; 0x01
				sysex_mes[sysx_mes_pos++] = ReceivedMIDIEvent.Data3;				
    1ff4:	03 96       	adiw	r24, 0x03	; 3
    1ff6:	90 93 02 03 	sts	0x0302, r25
    1ffa:	80 93 01 03 	sts	0x0301, r24
    1ffe:	8c 81       	ldd	r24, Y+4	; 0x04
    2000:	82 83       	std	Z+2, r24	; 0x02
    2002:	c3 c0       	rjmp	.+390    	; 0x218a <main+0x244>
				
									
			}else 	if((ReceivedMIDIEvent.Event == MIDI_EVENT(1,MIDI_COMMAND_SYSEX_END_1BYTE)
			||  ReceivedMIDIEvent.Event == MIDI_EVENT(1,MIDI_COMMAND_SYSEX_END_2BYTE)
			||  ReceivedMIDIEvent.Event == MIDI_EVENT(1,MIDI_COMMAND_SYSEX_END_3BYTE))){
    2004:	85 51       	subi	r24, 0x15	; 21
				sysex_mes[sysx_mes_pos++] = ReceivedMIDIEvent.Data1;
				sysex_mes[sysx_mes_pos++] = ReceivedMIDIEvent.Data2;
				sysex_mes[sysx_mes_pos++] = ReceivedMIDIEvent.Data3;				
				
									
			}else 	if((ReceivedMIDIEvent.Event == MIDI_EVENT(1,MIDI_COMMAND_SYSEX_END_1BYTE)
    2006:	83 30       	cpi	r24, 0x03	; 3
    2008:	08 f0       	brcs	.+2      	; 0x200c <main+0xc6>
    200a:	bf c0       	rjmp	.+382    	; 0x218a <main+0x244>
			||  ReceivedMIDIEvent.Event == MIDI_EVENT(1,MIDI_COMMAND_SYSEX_END_2BYTE)
			||  ReceivedMIDIEvent.Event == MIDI_EVENT(1,MIDI_COMMAND_SYSEX_END_3BYTE))){
				sysex_mes[sysx_mes_pos++] = ReceivedMIDIEvent.Data1;
    200c:	80 91 01 03 	lds	r24, 0x0301
    2010:	90 91 02 03 	lds	r25, 0x0302
    2014:	fc 01       	movw	r30, r24
    2016:	ea 5f       	subi	r30, 0xFA	; 250
    2018:	fc 4f       	sbci	r31, 0xFC	; 252
    201a:	2a 81       	ldd	r18, Y+2	; 0x02
    201c:	20 83       	st	Z, r18
				sysex_mes[sysx_mes_pos++] = ReceivedMIDIEvent.Data2;
    201e:	2b 81       	ldd	r18, Y+3	; 0x03
    2020:	21 83       	std	Z+1, r18	; 0x01
				sysex_mes[sysx_mes_pos++] = ReceivedMIDIEvent.Data3;
    2022:	03 96       	adiw	r24, 0x03	; 3
    2024:	90 93 02 03 	sts	0x0302, r25
    2028:	80 93 01 03 	sts	0x0301, r24
    202c:	8c 81       	ldd	r24, Y+4	; 0x04
    202e:	82 83       	std	Z+2, r24	; 0x02

			Data[0] = ((sysex_mes[1] & 0x0f)<<4) | (sysex_mes[2] & 0x0f);
    2030:	a7 e0       	ldi	r26, 0x07	; 7
    2032:	b3 e0       	ldi	r27, 0x03	; 3
    2034:	3c 91       	ld	r19, X
    2036:	e8 e0       	ldi	r30, 0x08	; 8
    2038:	f3 e0       	ldi	r31, 0x03	; 3
    203a:	10 81       	ld	r17, Z
			Data[1] = ((sysex_mes[3] & 0x0f)<<4) | (sysex_mes[4] & 0x0f);
    203c:	d3 01       	movw	r26, r6
    203e:	6c 91       	ld	r22, X
    2040:	f2 01       	movw	r30, r4
    2042:	80 81       	ld	r24, Z
			Data[2] = ((sysex_mes[5] & 0x0f)<<4) | (sysex_mes[6] & 0x0f);			
    2044:	f1 01       	movw	r30, r2
    2046:	b0 81       	ld	r27, Z
    2048:	ec e0       	ldi	r30, 0x0C	; 12
    204a:	f3 e0       	ldi	r31, 0x03	; 3
    204c:	50 81       	ld	r21, Z
			Data[3] = ((sysex_mes[7] & 0x0f)<<4) | (sysex_mes[8] & 0x0f);
    204e:	ed e0       	ldi	r30, 0x0D	; 13
    2050:	f3 e0       	ldi	r31, 0x03	; 3
    2052:	40 81       	ld	r20, Z
    2054:	ee e0       	ldi	r30, 0x0E	; 14
    2056:	f3 e0       	ldi	r31, 0x03	; 3
    2058:	a0 81       	ld	r26, Z
			
			if(sysex_mes[0] == 0xf0){
    205a:	e6 e0       	ldi	r30, 0x06	; 6
    205c:	f3 e0       	ldi	r31, 0x03	; 3
    205e:	90 81       	ld	r25, Z
    2060:	90 3f       	cpi	r25, 0xF0	; 240
    2062:	09 f0       	breq	.+2      	; 0x2066 <main+0x120>
    2064:	92 c0       	rjmp	.+292    	; 0x218a <main+0x244>
				sysex_mes[sysx_mes_pos++] = ReceivedMIDIEvent.Data1;
				sysex_mes[sysx_mes_pos++] = ReceivedMIDIEvent.Data2;
				sysex_mes[sysx_mes_pos++] = ReceivedMIDIEvent.Data3;

			Data[0] = ((sysex_mes[1] & 0x0f)<<4) | (sysex_mes[2] & 0x0f);
			Data[1] = ((sysex_mes[3] & 0x0f)<<4) | (sysex_mes[4] & 0x0f);
    2066:	f0 e1       	ldi	r31, 0x10	; 16
    2068:	6f 9f       	mul	r22, r31
    206a:	b0 01       	movw	r22, r0
    206c:	11 24       	eor	r1, r1
    206e:	e8 2f       	mov	r30, r24
    2070:	ef 70       	andi	r30, 0x0F	; 15
    2072:	e6 2b       	or	r30, r22
			Data[2] = ((sysex_mes[5] & 0x0f)<<4) | (sysex_mes[6] & 0x0f);			
    2074:	20 e1       	ldi	r18, 0x10	; 16
    2076:	b2 9f       	mul	r27, r18
    2078:	c0 01       	movw	r24, r0
    207a:	11 24       	eor	r1, r1
    207c:	5f 70       	andi	r21, 0x0F	; 15
    207e:	85 2b       	or	r24, r21
			Data[3] = ((sysex_mes[7] & 0x0f)<<4) | (sysex_mes[8] & 0x0f);
    2080:	90 e1       	ldi	r25, 0x10	; 16
    2082:	49 9f       	mul	r20, r25
    2084:	a0 01       	movw	r20, r0
    2086:	11 24       	eor	r1, r1
    2088:	6a 2f       	mov	r22, r26
    208a:	6f 70       	andi	r22, 0x0F	; 15
    208c:	64 2b       	or	r22, r20
			||  ReceivedMIDIEvent.Event == MIDI_EVENT(1,MIDI_COMMAND_SYSEX_END_3BYTE))){
				sysex_mes[sysx_mes_pos++] = ReceivedMIDIEvent.Data1;
				sysex_mes[sysx_mes_pos++] = ReceivedMIDIEvent.Data2;
				sysex_mes[sysx_mes_pos++] = ReceivedMIDIEvent.Data3;

			Data[0] = ((sysex_mes[1] & 0x0f)<<4) | (sysex_mes[2] & 0x0f);
    208e:	a0 e1       	ldi	r26, 0x10	; 16
    2090:	3a 9f       	mul	r19, r26
    2092:	90 01       	movw	r18, r0
    2094:	11 24       	eor	r1, r1
    2096:	f1 2f       	mov	r31, r17
    2098:	ff 70       	andi	r31, 0x0F	; 15
    209a:	2f 2b       	or	r18, r31
			Data[2] = ((sysex_mes[5] & 0x0f)<<4) | (sysex_mes[6] & 0x0f);			
			Data[3] = ((sysex_mes[7] & 0x0f)<<4) | (sysex_mes[8] & 0x0f);
			
			if(sysex_mes[0] == 0xf0){
			
				switch(Data[0]){
    209c:	25 30       	cpi	r18, 0x05	; 5
    209e:	09 f4       	brne	.+2      	; 0x20a2 <main+0x15c>
    20a0:	45 c0       	rjmp	.+138    	; 0x212c <main+0x1e6>
    20a2:	30 f4       	brcc	.+12     	; 0x20b0 <main+0x16a>
    20a4:	21 30       	cpi	r18, 0x01	; 1
    20a6:	d9 f0       	breq	.+54     	; 0x20de <main+0x198>
    20a8:	90 f0       	brcs	.+36     	; 0x20ce <main+0x188>
    20aa:	22 30       	cpi	r18, 0x02	; 2
    20ac:	e9 f0       	breq	.+58     	; 0x20e8 <main+0x1a2>
    20ae:	6d c0       	rjmp	.+218    	; 0x218a <main+0x244>
    20b0:	29 30       	cpi	r18, 0x09	; 9
    20b2:	09 f4       	brne	.+2      	; 0x20b6 <main+0x170>
    20b4:	54 c0       	rjmp	.+168    	; 0x215e <main+0x218>
    20b6:	20 f4       	brcc	.+8      	; 0x20c0 <main+0x17a>
    20b8:	26 30       	cpi	r18, 0x06	; 6
    20ba:	09 f4       	brne	.+2      	; 0x20be <main+0x178>
    20bc:	44 c0       	rjmp	.+136    	; 0x2146 <main+0x200>
    20be:	65 c0       	rjmp	.+202    	; 0x218a <main+0x244>
    20c0:	2a 30       	cpi	r18, 0x0A	; 10
    20c2:	09 f4       	brne	.+2      	; 0x20c6 <main+0x180>
    20c4:	4e c0       	rjmp	.+156    	; 0x2162 <main+0x21c>
    20c6:	2b 30       	cpi	r18, 0x0B	; 11
    20c8:	09 f4       	brne	.+2      	; 0x20cc <main+0x186>
    20ca:	56 c0       	rjmp	.+172    	; 0x2178 <main+0x232>
    20cc:	5e c0       	rjmp	.+188    	; 0x218a <main+0x244>
	
				case 0:  // Reset
			
					switch(Data[3]){
    20ce:	61 11       	cpse	r22, r1
    20d0:	5c c0       	rjmp	.+184    	; 0x218a <main+0x244>
						case 0:
							reset_ymf825();
    20d2:	f1 dc       	rcall	.-1566   	; 0x1ab6 <reset_ymf825>
							bank = 1;
    20d4:	81 e0       	ldi	r24, 0x01	; 1
    20d6:	80 93 03 03 	sts	0x0303, r24




void mem_reset(void){
	init_midich();
    20da:	b4 d2       	rcall	.+1384   	; 0x2644 <init_midich>
    20dc:	56 c0       	rjmp	.+172    	; 0x218a <main+0x244>
					}
					break;
			
				case 1:		// Write Data to Register
			
					if(Data[1]==2){
    20de:	e2 30       	cpi	r30, 0x02	; 2
    20e0:	09 f0       	breq	.+2      	; 0x20e4 <main+0x19e>
    20e2:	53 c0       	rjmp	.+166    	; 0x218a <main+0x244>
						if_s_write(Data[2],Data[3]);
    20e4:	2e dc       	rcall	.-1956   	; 0x1942 <if_s_write>
    20e6:	51 c0       	rjmp	.+162    	; 0x218a <main+0x244>
					}
					break;
				case 2:		// set pori mode midi channel 1 and 4
			
						if(Data[1]== 0){
    20e8:	e1 11       	cpse	r30, r1
    20ea:	05 c0       	rjmp	.+10     	; 0x20f6 <main+0x1b0>
							play_mode = 0;
    20ec:	10 92 0f 01 	sts	0x010F, r1
					
							setChannelDefault();
    20f0:	b1 dc       	rcall	.-1694   	; 0x1a54 <setChannelDefault>




void mem_reset(void){
	init_midich();
    20f2:	a8 d2       	rcall	.+1360   	; 0x2644 <init_midich>
    20f4:	4a c0       	rjmp	.+148    	; 0x218a <main+0x244>
							play_mode = 0;
					
							setChannelDefault();
							mem_reset();
				
						}else if(Data[1] ==1){
    20f6:	e1 30       	cpi	r30, 0x01	; 1
    20f8:	71 f4       	brne	.+28     	; 0x2116 <main+0x1d0>
							play_mode = 1;
    20fa:	81 e0       	ldi	r24, 0x01	; 1
    20fc:	80 93 0f 01 	sts	0x010F, r24
    2100:	ef e5       	ldi	r30, 0x5F	; 95
    2102:	f5 e0       	ldi	r31, 0x05	; 5
							for(a = 0;a<16;a++){
    2104:	80 e0       	ldi	r24, 0x00	; 0
								midi_ch[a].voice_no = a;
    2106:	80 83       	st	Z, r24
							setChannelDefault();
							mem_reset();
				
						}else if(Data[1] ==1){
							play_mode = 1;
							for(a = 0;a<16;a++){
    2108:	8f 5f       	subi	r24, 0xFF	; 255
    210a:	70 96       	adiw	r30, 0x10	; 16
    210c:	80 31       	cpi	r24, 0x10	; 16
    210e:	d9 f7       	brne	.-10     	; 0x2106 <main+0x1c0>
								midi_ch[a].voice_no = a;
							
							}
							setChannelDefault();
    2110:	a1 dc       	rcall	.-1726   	; 0x1a54 <setChannelDefault>




void mem_reset(void){
	init_midich();
    2112:	98 d2       	rcall	.+1328   	; 0x2644 <init_midich>
    2114:	3a c0       	rjmp	.+116    	; 0x218a <main+0x244>
							
							}
							setChannelDefault();
							mem_reset();				
													
						}else if(Data[1] == 3){
    2116:	e3 30       	cpi	r30, 0x03	; 3
    2118:	c1 f5       	brne	.+112    	; 0x218a <main+0x244>
							play_mode = 3;
    211a:	83 e0       	ldi	r24, 0x03	; 3
    211c:	80 93 0f 01 	sts	0x010F, r24
							MAX_3MUL = 8;
    2120:	88 e0       	ldi	r24, 0x08	; 8
    2122:	80 93 10 01 	sts	0x0110, r24
							setChannelDefault();
    2126:	96 dc       	rcall	.-1748   	; 0x1a54 <setChannelDefault>




void mem_reset(void){
	init_midich();
    2128:	8d d2       	rcall	.+1306   	; 0x2644 <init_midich>
    212a:	2f c0       	rjmp	.+94     	; 0x218a <main+0x244>
			
				case 5: // set tone data  EEPROM YMF262 ;
					ch = (int)Data[1];
					f = (int)Data[2];
					c = Data[3];
					ch = ch << 5;
    212c:	b0 e2       	ldi	r27, 0x20	; 32
    212e:	eb 9f       	mul	r30, r27
    2130:	90 01       	movw	r18, r0
    2132:	11 24       	eor	r1, r1
					f = f + ch;
    2134:	f9 01       	movw	r30, r18
    2136:	e8 0f       	add	r30, r24
    2138:	f1 1d       	adc	r31, r1
    213a:	cf 01       	movw	r24, r30
			
					eeprom_busy_wait();
    213c:	f9 99       	sbic	0x1f, 1	; 31
    213e:	fe cf       	rjmp	.-4      	; 0x213c <main+0x1f6>
					eeprom_write_byte((uint8_t *)f,c);
    2140:	0e 94 9f 1c 	call	0x393e	; 0x393e <__eewr_byte_m32u4>
					break;
    2144:	22 c0       	rjmp	.+68     	; 0x218a <main+0x244>
					
				case 6:	//ready read tone data EEPROM
					send_cnt = 30;
    2146:	8e e1       	ldi	r24, 0x1E	; 30
    2148:	80 93 00 03 	sts	0x0300, r24
					eeprom_p_midi = Data[1] << 5;
    214c:	f0 e2       	ldi	r31, 0x20	; 32
    214e:	ef 9f       	mul	r30, r31
    2150:	c0 01       	movw	r24, r0
    2152:	11 24       	eor	r1, r1
    2154:	90 93 05 03 	sts	0x0305, r25
    2158:	80 93 04 03 	sts	0x0304, r24
					break;
    215c:	16 c0       	rjmp	.+44     	; 0x218a <main+0x244>
				
				case 9: // burst write tone data
					write_burst();
    215e:	4a d2       	rcall	.+1172   	; 0x25f4 <write_burst>
					break;	
    2160:	14 c0       	rjmp	.+40     	; 0x218a <main+0x244>
					
				case 10: //write tone array and write burst
					tone_reg[(Data[1]*30)+Data[2]] = Data[3];
    2162:	2e e1       	ldi	r18, 0x1E	; 30
    2164:	e2 9f       	mul	r30, r18
    2166:	f0 01       	movw	r30, r0
    2168:	11 24       	eor	r1, r1
    216a:	e8 0f       	add	r30, r24
    216c:	f1 1d       	adc	r31, r1
    216e:	e1 5a       	subi	r30, 0xA1	; 161
    2170:	fc 4f       	sbci	r31, 0xFC	; 252
    2172:	60 83       	st	Z, r22
					write_burst();
    2174:	3f d2       	rcall	.+1150   	; 0x25f4 <write_burst>
					break;	
    2176:	09 c0       	rjmp	.+18     	; 0x218a <main+0x244>
					
				case 11: //write tone array only
					tone_reg[(Data[1]*30+Data[2])] = Data[3];
    2178:	3e e1       	ldi	r19, 0x1E	; 30
    217a:	e3 9f       	mul	r30, r19
    217c:	f0 01       	movw	r30, r0
    217e:	11 24       	eor	r1, r1
    2180:	e8 0f       	add	r30, r24
    2182:	f1 1d       	adc	r31, r1
    2184:	e1 5a       	subi	r30, 0xA1	; 161
    2186:	fc 4f       	sbci	r31, 0xFC	; 252
    2188:	60 83       	st	Z, r22
		}
			
			
		
			//if ((ReceivedMIDIEvent.Event == MIDI_EVENT(0, MIDI_COMMAND_NOTE_ON)) && (ReceivedMIDIEvent.Data3 > 0)){
			if ((ReceivedMIDIEvent.Event == MIDI_EVENT(0, MIDI_COMMAND_NOTE_ON))){ 
    218a:	89 81       	ldd	r24, Y+1	; 0x01
    218c:	89 30       	cpi	r24, 0x09	; 9
    218e:	09 f0       	breq	.+2      	; 0x2192 <main+0x24c>
    2190:	67 c0       	rjmp	.+206    	; 0x2260 <main+0x31a>
// ノートオン
			    ch = ReceivedMIDIEvent.Data1 & 0x0f;
    2192:	1a 81       	ldd	r17, Y+2	; 0x02
    2194:	1f 70       	andi	r17, 0x0F	; 15
    2196:	a1 2e       	mov	r10, r17
    2198:	b1 2c       	mov	r11, r1
			  	i = ReceivedMIDIEvent.Data2;
    219a:	8b 80       	ldd	r8, Y+3	; 0x03
			  	j = ReceivedMIDIEvent.Data3;
    219c:	9c 80       	ldd	r9, Y+4	; 0x04
				if(j == 0){
    219e:	91 10       	cpse	r9, r1
    21a0:	04 c0       	rjmp	.+8      	; 0x21aa <main+0x264>
					note_off_func(ch,i);
    21a2:	68 2d       	mov	r22, r8
    21a4:	c5 01       	movw	r24, r10
    21a6:	77 d4       	rcall	.+2286   	; 0x2a96 <note_off_func>
    21a8:	5b c0       	rjmp	.+182    	; 0x2260 <main+0x31a>
					//break;
				}else {
				
					
						if(play_mode == 1){
    21aa:	80 91 0f 01 	lds	r24, 0x010F
    21ae:	81 30       	cpi	r24, 0x01	; 1
    21b0:	c1 f4       	brne	.+48     	; 0x21e2 <main+0x29c>
							
							f = get_voice(ch,i,j);
    21b2:	49 2d       	mov	r20, r9
    21b4:	68 2d       	mov	r22, r8
    21b6:	81 2f       	mov	r24, r17
    21b8:	27 d3       	rcall	.+1614   	; 0x2808 <get_voice>
							if(f != NOT_GET){
    21ba:	8f 3f       	cpi	r24, 0xFF	; 255
    21bc:	91 05       	cpc	r25, r1
    21be:	09 f4       	brne	.+2      	; 0x21c2 <main+0x27c>
    21c0:	4f c0       	rjmp	.+158    	; 0x2260 <main+0x31a>
								note_on(ch,f,i,j,midi_ch[ch].voice_no);
    21c2:	d5 01       	movw	r26, r10
    21c4:	a2 95       	swap	r26
    21c6:	b2 95       	swap	r27
    21c8:	b0 7f       	andi	r27, 0xF0	; 240
    21ca:	ba 27       	eor	r27, r26
    21cc:	a0 7f       	andi	r26, 0xF0	; 240
    21ce:	ba 27       	eor	r27, r26
    21d0:	a1 5a       	subi	r26, 0xA1	; 161
    21d2:	ba 4f       	sbci	r27, 0xFA	; 250
    21d4:	0c 91       	ld	r16, X
    21d6:	29 2d       	mov	r18, r9
    21d8:	48 2d       	mov	r20, r8
    21da:	68 2f       	mov	r22, r24
    21dc:	81 2f       	mov	r24, r17
    21de:	91 d3       	rcall	.+1826   	; 0x2902 <note_on>
    21e0:	3f c0       	rjmp	.+126    	; 0x2260 <main+0x31a>
							}
						}else if(play_mode == 3){
    21e2:	83 30       	cpi	r24, 0x03	; 3
    21e4:	71 f5       	brne	.+92     	; 0x2242 <main+0x2fc>
							f = get_voice(ch,i,j);
    21e6:	49 2d       	mov	r20, r9
    21e8:	68 2d       	mov	r22, r8
    21ea:	81 2f       	mov	r24, r17
    21ec:	0d d3       	rcall	.+1562   	; 0x2808 <get_voice>
							if(f != NOT_GET){							
    21ee:	8f 3f       	cpi	r24, 0xFF	; 255
    21f0:	91 05       	cpc	r25, r1
    21f2:	79 f0       	breq	.+30     	; 0x2212 <main+0x2cc>
								note_on(ch,f,i,j,midi_ch[ch].voice_no);
    21f4:	d5 01       	movw	r26, r10
    21f6:	a2 95       	swap	r26
    21f8:	b2 95       	swap	r27
    21fa:	b0 7f       	andi	r27, 0xF0	; 240
    21fc:	ba 27       	eor	r27, r26
    21fe:	a0 7f       	andi	r26, 0xF0	; 240
    2200:	ba 27       	eor	r27, r26
    2202:	a1 5a       	subi	r26, 0xA1	; 161
    2204:	ba 4f       	sbci	r27, 0xFA	; 250
    2206:	0c 91       	ld	r16, X
    2208:	29 2d       	mov	r18, r9
    220a:	48 2d       	mov	r20, r8
    220c:	68 2f       	mov	r22, r24
    220e:	81 2f       	mov	r24, r17
    2210:	78 d3       	rcall	.+1776   	; 0x2902 <note_on>
							}
							//_delay_ms(1);	//可変にしたら面白そう
							//_delay_us(200);
							f = get_voice(ch+8,i,j);
    2212:	18 5f       	subi	r17, 0xF8	; 248
    2214:	49 2d       	mov	r20, r9
    2216:	68 2d       	mov	r22, r8
    2218:	81 2f       	mov	r24, r17
    221a:	f6 d2       	rcall	.+1516   	; 0x2808 <get_voice>
							if(f != NOT_GET){						
    221c:	8f 3f       	cpi	r24, 0xFF	; 255
    221e:	91 05       	cpc	r25, r1
    2220:	f9 f0       	breq	.+62     	; 0x2260 <main+0x31a>
								note_on(ch+8,f,i,j,midi_ch[ch+8].voice_no);
    2222:	f5 01       	movw	r30, r10
    2224:	e2 95       	swap	r30
    2226:	f2 95       	swap	r31
    2228:	f0 7f       	andi	r31, 0xF0	; 240
    222a:	fe 27       	eor	r31, r30
    222c:	e0 7f       	andi	r30, 0xF0	; 240
    222e:	fe 27       	eor	r31, r30
    2230:	e1 52       	subi	r30, 0x21	; 33
    2232:	fa 4f       	sbci	r31, 0xFA	; 250
    2234:	00 81       	ld	r16, Z
    2236:	29 2d       	mov	r18, r9
    2238:	48 2d       	mov	r20, r8
    223a:	68 2f       	mov	r22, r24
    223c:	81 2f       	mov	r24, r17
    223e:	61 d3       	rcall	.+1730   	; 0x2902 <note_on>
    2240:	0f c0       	rjmp	.+30     	; 0x2260 <main+0x31a>
							}
						}else{
							note_on(ch,ch,i,j,midi_ch[ch].voice_no);
    2242:	f5 01       	movw	r30, r10
    2244:	e2 95       	swap	r30
    2246:	f2 95       	swap	r31
    2248:	f0 7f       	andi	r31, 0xF0	; 240
    224a:	fe 27       	eor	r31, r30
    224c:	e0 7f       	andi	r30, 0xF0	; 240
    224e:	fe 27       	eor	r31, r30
    2250:	e1 5a       	subi	r30, 0xA1	; 161
    2252:	fa 4f       	sbci	r31, 0xFA	; 250
    2254:	00 81       	ld	r16, Z
    2256:	29 2d       	mov	r18, r9
    2258:	48 2d       	mov	r20, r8
    225a:	61 2f       	mov	r22, r17
    225c:	81 2f       	mov	r24, r17
    225e:	51 d3       	rcall	.+1698   	; 0x2902 <note_on>
					
				}
			
				
			}
			if ((ReceivedMIDIEvent.Event == MIDI_EVENT(0, MIDI_COMMAND_NOTE_OFF))){
    2260:	89 81       	ldd	r24, Y+1	; 0x01
    2262:	88 30       	cpi	r24, 0x08	; 8
    2264:	29 f4       	brne	.+10     	; 0x2270 <main+0x32a>
				//ノートオフ
				ch = ReceivedMIDIEvent.Data1 & 0x0f;
    2266:	8a 81       	ldd	r24, Y+2	; 0x02
    2268:	8f 70       	andi	r24, 0x0F	; 15
				i = ReceivedMIDIEvent.Data2;
				note_off_func(ch,i);
    226a:	6b 81       	ldd	r22, Y+3	; 0x03
    226c:	90 e0       	ldi	r25, 0x00	; 0
    226e:	13 d4       	rcall	.+2086   	; 0x2a96 <note_off_func>
	
			}
			
	
			
			if((ReceivedMIDIEvent.Event == MIDI_EVENT(0,MIDI_COMMAND_SYSEX_START_3BYTE))){		
    2270:	89 81       	ldd	r24, Y+1	; 0x01
    2272:	84 30       	cpi	r24, 0x04	; 4
    2274:	81 f4       	brne	.+32     	; 0x2296 <main+0x350>
				//えくるしーぶメッセージ
				// message 
				// 0xf0  dat1,dat2,dat3,dat4 0xf7
				i = ReceivedMIDIEvent.Data1;
				if(i == 0xf0){
    2276:	8a 81       	ldd	r24, Y+2	; 0x02
    2278:	80 3f       	cpi	r24, 0xF0	; 240
    227a:	09 f0       	breq	.+2      	; 0x227e <main+0x338>
    227c:	7c c0       	rjmp	.+248    	; 0x2376 <main+0x430>
					sysex_mes[0] = i;
    227e:	a6 e0       	ldi	r26, 0x06	; 6
    2280:	b3 e0       	ldi	r27, 0x03	; 3
    2282:	8c 93       	st	X, r24
					sysex_mes[1] = ReceivedMIDIEvent.Data2;
    2284:	8b 81       	ldd	r24, Y+3	; 0x03
    2286:	e7 e0       	ldi	r30, 0x07	; 7
    2288:	f3 e0       	ldi	r31, 0x03	; 3
    228a:	80 83       	st	Z, r24
					sysex_mes[2] = ReceivedMIDIEvent.Data3;
    228c:	8c 81       	ldd	r24, Y+4	; 0x04
    228e:	a8 e0       	ldi	r26, 0x08	; 8
    2290:	b3 e0       	ldi	r27, 0x03	; 3
    2292:	8c 93       	st	X, r24
    2294:	70 c0       	rjmp	.+224    	; 0x2376 <main+0x430>
			
			

			if((ReceivedMIDIEvent.Event == MIDI_EVENT(0,MIDI_COMMAND_SYSEX_END_1BYTE)
			||  ReceivedMIDIEvent.Event == MIDI_EVENT(0,MIDI_COMMAND_SYSEX_END_2BYTE)
			||  ReceivedMIDIEvent.Event == MIDI_EVENT(0,MIDI_COMMAND_SYSEX_END_3BYTE))){
    2296:	9b ef       	ldi	r25, 0xFB	; 251
    2298:	98 0f       	add	r25, r24
				}
			}
			
			

			if((ReceivedMIDIEvent.Event == MIDI_EVENT(0,MIDI_COMMAND_SYSEX_END_1BYTE)
    229a:	93 30       	cpi	r25, 0x03	; 3
    229c:	48 f4       	brcc	.+18     	; 0x22b0 <main+0x36a>
			||  ReceivedMIDIEvent.Event == MIDI_EVENT(0,MIDI_COMMAND_SYSEX_END_2BYTE)
			||  ReceivedMIDIEvent.Event == MIDI_EVENT(0,MIDI_COMMAND_SYSEX_END_3BYTE))){
				sysex_mes[3] = ReceivedMIDIEvent.Data1;
    229e:	9a 81       	ldd	r25, Y+2	; 0x02
    22a0:	f3 01       	movw	r30, r6
    22a2:	90 83       	st	Z, r25
				sysex_mes[4] = ReceivedMIDIEvent.Data2;
    22a4:	9b 81       	ldd	r25, Y+3	; 0x03
    22a6:	d2 01       	movw	r26, r4
    22a8:	9c 93       	st	X, r25
				sysex_mes[5] = ReceivedMIDIEvent.Data3;
    22aa:	9c 81       	ldd	r25, Y+4	; 0x04
    22ac:	f1 01       	movw	r30, r2
    22ae:	90 83       	st	Z, r25
			
			
			/* プログラムチェンジ */
			
			
			if((ReceivedMIDIEvent.Event == MIDI_EVENT(0,MIDI_COMMAND_PROGRAM_CHANGE))){
    22b0:	8c 30       	cpi	r24, 0x0C	; 12
    22b2:	09 f0       	breq	.+2      	; 0x22b6 <main+0x370>
    22b4:	60 c0       	rjmp	.+192    	; 0x2376 <main+0x430>
				ch = ReceivedMIDIEvent.Data1 & 0x0f;
    22b6:	5a 81       	ldd	r21, Y+2	; 0x02
    22b8:	5f 70       	andi	r21, 0x0F	; 15
    22ba:	85 2f       	mov	r24, r21
    22bc:	90 e0       	ldi	r25, 0x00	; 0
				j = ReceivedMIDIEvent.Data2;	//プログラムナンバー
    22be:	2b 81       	ldd	r18, Y+3	; 0x03
				//f = j << 5;  //  f = j * 32;
				l = j & 0x0f;
				
				if(bank == 1){
    22c0:	30 91 03 03 	lds	r19, 0x0303
    22c4:	31 30       	cpi	r19, 0x01	; 1
    22c6:	21 f5       	brne	.+72     	; 0x2310 <main+0x3ca>
					midi_ch[ch].voice_no = ch;				
    22c8:	fc 01       	movw	r30, r24
    22ca:	e2 95       	swap	r30
    22cc:	f2 95       	swap	r31
    22ce:	f0 7f       	andi	r31, 0xF0	; 240
    22d0:	fe 27       	eor	r31, r30
    22d2:	e0 7f       	andi	r30, 0xF0	; 240
    22d4:	fe 27       	eor	r31, r30
    22d6:	e1 5a       	subi	r30, 0xA1	; 161
    22d8:	fa 4f       	sbci	r31, 0xFA	; 250
    22da:	50 83       	st	Z, r21
					/* Yamaha midi 音源のwavedata読み込み */
					f = j * 30;
    22dc:	4e e1       	ldi	r20, 0x1E	; 30
    22de:	42 9f       	mul	r20, r18
    22e0:	90 01       	movw	r18, r0
    22e2:	11 24       	eor	r1, r1
					adr = ch * 30;
    22e4:	48 9f       	mul	r20, r24
    22e6:	d0 01       	movw	r26, r0
    22e8:	49 9f       	mul	r20, r25
    22ea:	b0 0d       	add	r27, r0
    22ec:	11 24       	eor	r1, r1
    22ee:	a1 5a       	subi	r26, 0xA1	; 161
    22f0:	bc 4f       	sbci	r27, 0xFC	; 252
    22f2:	80 e0       	ldi	r24, 0x00	; 0
    22f4:	90 e0       	ldi	r25, 0x00	; 0
    22f6:	25 57       	subi	r18, 0x75	; 117
    22f8:	3a 4f       	sbci	r19, 0xFA	; 250
    22fa:	f9 01       	movw	r30, r18
    22fc:	e8 0f       	add	r30, r24
    22fe:	f9 1f       	adc	r31, r25

					for(i = 0;i < 30;i++){
						tone_reg[adr+i] = pgm_read_byte(&(wave825[(int)i+f]));
    2300:	e4 91       	lpm	r30, Z
    2302:	ed 93       	st	X+, r30
    2304:	01 96       	adiw	r24, 0x01	; 1
					midi_ch[ch].voice_no = ch;				
					/* Yamaha midi 音源のwavedata読み込み */
					f = j * 30;
					adr = ch * 30;

					for(i = 0;i < 30;i++){
    2306:	8e 31       	cpi	r24, 0x1E	; 30
    2308:	91 05       	cpc	r25, r1
    230a:	b9 f7       	brne	.-18     	; 0x22fa <main+0x3b4>
						tone_reg[adr+i] = pgm_read_byte(&(wave825[(int)i+f]));
					}
					write_burst();
    230c:	73 d1       	rcall	.+742    	; 0x25f4 <write_burst>
    230e:	33 c0       	rjmp	.+102    	; 0x2376 <main+0x430>

				}else if(bank == 2){
    2310:	32 30       	cpi	r19, 0x02	; 2
    2312:	31 f5       	brne	.+76     	; 0x2360 <main+0x41a>
					j  = j & 0x1f;
    2314:	2f 71       	andi	r18, 0x1F	; 31
					f = j << 5;		//*32
    2316:	f0 e2       	ldi	r31, 0x20	; 32
    2318:	2f 9f       	mul	r18, r31
    231a:	a0 01       	movw	r20, r0
    231c:	11 24       	eor	r1, r1
					adr = ch * 30;
    231e:	6e e1       	ldi	r22, 0x1E	; 30
    2320:	68 9f       	mul	r22, r24
    2322:	90 01       	movw	r18, r0
    2324:	69 9f       	mul	r22, r25
    2326:	30 0d       	add	r19, r0
    2328:	11 24       	eor	r1, r1
    232a:	89 01       	movw	r16, r18
    232c:	01 5a       	subi	r16, 0xA1	; 161
    232e:	1c 4f       	sbci	r17, 0xFC	; 252
    2330:	0f 2e       	mov	r0, r31
    2332:	fe e1       	ldi	r31, 0x1E	; 30
    2334:	9f 2e       	mov	r9, r31
    2336:	f0 2d       	mov	r31, r0
    2338:	ca 01       	movw	r24, r20
    233a:	8f 55       	subi	r24, 0x5F	; 95
    233c:	93 40       	sbci	r25, 0x03	; 3
    233e:	5c 01       	movw	r10, r24
    2340:	a2 1a       	sub	r10, r18
    2342:	b3 0a       	sbc	r11, r19
					for(i = 0;i < 30;i++){
						eeprom_busy_wait();
    2344:	f9 99       	sbic	0x1f, 1	; 31
    2346:	fe cf       	rjmp	.-4      	; 0x2344 <main+0x3fe>
						tone_reg[adr+i] = eeprom_read_byte((uint8_t *)(f+i));
    2348:	c5 01       	movw	r24, r10
    234a:	80 0f       	add	r24, r16
    234c:	91 1f       	adc	r25, r17
    234e:	0e 94 97 1c 	call	0x392e	; 0x392e <__eerd_byte_m32u4>
    2352:	d8 01       	movw	r26, r16
    2354:	8d 93       	st	X+, r24
    2356:	8d 01       	movw	r16, r26
    2358:	9a 94       	dec	r9

				}else if(bank == 2){
					j  = j & 0x1f;
					f = j << 5;		//*32
					adr = ch * 30;
					for(i = 0;i < 30;i++){
    235a:	a1 f7       	brne	.-24     	; 0x2344 <main+0x3fe>
						eeprom_busy_wait();
						tone_reg[adr+i] = eeprom_read_byte((uint8_t *)(f+i));
					}
					write_burst();
    235c:	4b d1       	rcall	.+662    	; 0x25f4 <write_burst>
    235e:	0b c0       	rjmp	.+22     	; 0x2376 <main+0x430>
					
				}else{
					//channelVoiceNo[ch] = l;
					midi_ch[ch].voice_no = l;
    2360:	fc 01       	movw	r30, r24
    2362:	e2 95       	swap	r30
    2364:	f2 95       	swap	r31
    2366:	f0 7f       	andi	r31, 0xF0	; 240
    2368:	fe 27       	eor	r31, r30
    236a:	e0 7f       	andi	r30, 0xF0	; 240
    236c:	fe 27       	eor	r31, r30
    236e:	e1 5a       	subi	r30, 0xA1	; 161
    2370:	fa 4f       	sbci	r31, 0xFA	; 250
			
			if((ReceivedMIDIEvent.Event == MIDI_EVENT(0,MIDI_COMMAND_PROGRAM_CHANGE))){
				ch = ReceivedMIDIEvent.Data1 & 0x0f;
				j = ReceivedMIDIEvent.Data2;	//プログラムナンバー
				//f = j << 5;  //  f = j * 32;
				l = j & 0x0f;
    2372:	2f 70       	andi	r18, 0x0F	; 15
					}
					write_burst();
					
				}else{
					//channelVoiceNo[ch] = l;
					midi_ch[ch].voice_no = l;
    2374:	20 83       	st	Z, r18
								
			}
			
			/* ピッチホイールチェンジ　*/
			
			if((ReceivedMIDIEvent.Event == MIDI_EVENT(0,MIDI_COMMAND_PITCH_WHEEL_CHANGE))){
    2376:	89 81       	ldd	r24, Y+1	; 0x01
    2378:	8e 30       	cpi	r24, 0x0E	; 14
    237a:	01 f5       	brne	.+64     	; 0x23bc <main+0x476>
				ch = ReceivedMIDIEvent.Data1 & 0x0f;
    237c:	8a 81       	ldd	r24, Y+2	; 0x02
    237e:	8f 70       	andi	r24, 0x0F	; 15
    2380:	08 2f       	mov	r16, r24
    2382:	10 e0       	ldi	r17, 0x00	; 0
				j = ReceivedMIDIEvent.Data2;
    2384:	4b 81       	ldd	r20, Y+3	; 0x03
				i = ReceivedMIDIEvent.Data3;
    2386:	6c 81       	ldd	r22, Y+4	; 0x04
				

				
				if(play_mode == 1){
    2388:	90 91 0f 01 	lds	r25, 0x010F
    238c:	91 30       	cpi	r25, 0x01	; 1
    238e:	29 f4       	brne	.+10     	; 0x239a <main+0x454>
						change_pitchbend(ch,i,j);
    2390:	50 e0       	ldi	r21, 0x00	; 0
    2392:	70 e0       	ldi	r23, 0x00	; 0
    2394:	c8 01       	movw	r24, r16
    2396:	d3 d3       	rcall	.+1958   	; 0x2b3e <change_pitchbend>
    2398:	11 c0       	rjmp	.+34     	; 0x23bc <main+0x476>
									
				}else if(play_mode == 3){
    239a:	93 30       	cpi	r25, 0x03	; 3
    239c:	71 f4       	brne	.+28     	; 0x23ba <main+0x474>
						change_pitchbend(ch,i,j);
    239e:	84 2e       	mov	r8, r20
    23a0:	91 2c       	mov	r9, r1
    23a2:	a6 2e       	mov	r10, r22
    23a4:	b1 2c       	mov	r11, r1
    23a6:	a4 01       	movw	r20, r8
    23a8:	b5 01       	movw	r22, r10
    23aa:	c8 01       	movw	r24, r16
    23ac:	c8 d3       	rcall	.+1936   	; 0x2b3e <change_pitchbend>
						change_pitchbend(ch+8,i,j);
    23ae:	a4 01       	movw	r20, r8
    23b0:	b5 01       	movw	r22, r10
    23b2:	c8 01       	movw	r24, r16
    23b4:	08 96       	adiw	r24, 0x08	; 8
    23b6:	c3 d3       	rcall	.+1926   	; 0x2b3e <change_pitchbend>
    23b8:	01 c0       	rjmp	.+2      	; 0x23bc <main+0x476>
				}else{
				pitch_wheel_change(ch, i , j);
    23ba:	5c d4       	rcall	.+2232   	; 0x2c74 <pitch_wheel_change>
			

			
			
			/* コントロールチェンジ メッセージ　*/
			if((ReceivedMIDIEvent.Event == MIDI_EVENT(0,MIDI_COMMAND_CONTROL_CHANGE))){
    23bc:	89 81       	ldd	r24, Y+1	; 0x01
    23be:	8b 30       	cpi	r24, 0x0B	; 11
    23c0:	09 f0       	breq	.+2      	; 0x23c4 <main+0x47e>
    23c2:	03 c1       	rjmp	.+518    	; 0x25ca <main+0x684>
				ch = ReceivedMIDIEvent.Data1 & 0x0f;
    23c4:	4a 81       	ldd	r20, Y+2	; 0x02
    23c6:	64 2f       	mov	r22, r20
    23c8:	6f 70       	andi	r22, 0x0F	; 15
    23ca:	06 2f       	mov	r16, r22
    23cc:	10 e0       	ldi	r17, 0x00	; 0
				i = ReceivedMIDIEvent.Data2;   //control No
    23ce:	2b 81       	ldd	r18, Y+3	; 0x03
				j = ReceivedMIDIEvent.Data3;	//value
    23d0:	3c 81       	ldd	r19, Y+4	; 0x04
				
				
				if(i == 101){	// RPN MSB
    23d2:	25 36       	cpi	r18, 0x65	; 101
    23d4:	29 f4       	brne	.+10     	; 0x23e0 <main+0x49a>
					rpn_msb[ch] = j;
    23d6:	f8 01       	movw	r30, r16
    23d8:	e2 5c       	subi	r30, 0xC2	; 194
    23da:	fc 4f       	sbci	r31, 0xFC	; 252
    23dc:	30 83       	st	Z, r19
    23de:	20 c0       	rjmp	.+64     	; 0x2420 <main+0x4da>
				}
				if(i == 100){	//RPN LSB
    23e0:	24 36       	cpi	r18, 0x64	; 100
    23e2:	29 f4       	brne	.+10     	; 0x23ee <main+0x4a8>
					rpn_lsb[ch] = j;
    23e4:	f8 01       	movw	r30, r16
    23e6:	e1 5b       	subi	r30, 0xB1	; 177
    23e8:	fa 4f       	sbci	r31, 0xFA	; 250
    23ea:	30 83       	st	Z, r19
    23ec:	26 c0       	rjmp	.+76     	; 0x243a <main+0x4f4>
				}
				if(i == 6){
    23ee:	26 30       	cpi	r18, 0x06	; 6
    23f0:	b9 f4       	brne	.+46     	; 0x2420 <main+0x4da>
					if((rpn_msb[ch]==0) && (rpn_lsb[ch]==0)){
    23f2:	f8 01       	movw	r30, r16
    23f4:	e2 5c       	subi	r30, 0xC2	; 194
    23f6:	fc 4f       	sbci	r31, 0xFC	; 252
    23f8:	80 81       	ld	r24, Z
    23fa:	81 11       	cpse	r24, r1
    23fc:	2f c0       	rjmp	.+94     	; 0x245c <main+0x516>
    23fe:	f8 01       	movw	r30, r16
    2400:	e1 5b       	subi	r30, 0xB1	; 177
    2402:	fa 4f       	sbci	r31, 0xFA	; 250
    2404:	80 81       	ld	r24, Z
    2406:	81 11       	cpse	r24, r1
    2408:	29 c0       	rjmp	.+82     	; 0x245c <main+0x516>
						midi_ch[ch].pitch_sens = j;
    240a:	f8 01       	movw	r30, r16
    240c:	e2 95       	swap	r30
    240e:	f2 95       	swap	r31
    2410:	f0 7f       	andi	r31, 0xF0	; 240
    2412:	fe 27       	eor	r31, r30
    2414:	e0 7f       	andi	r30, 0xF0	; 240
    2416:	fe 27       	eor	r31, r30
    2418:	e1 5a       	subi	r30, 0xA1	; 161
    241a:	fa 4f       	sbci	r31, 0xFA	; 250
    241c:	30 87       	std	Z+8, r19	; 0x08
    241e:	1e c0       	rjmp	.+60     	; 0x245c <main+0x516>
					}
				}
				
	
				
				if(i == 60){
    2420:	2c 33       	cpi	r18, 0x3C	; 60
    2422:	59 f4       	brne	.+22     	; 0x243a <main+0x4f4>
					for(l = 0;l<channelVal;l++){
    2424:	90 91 4e 03 	lds	r25, 0x034E
    2428:	99 23       	and	r25, r25
    242a:	49 f1       	breq	.+82     	; 0x247e <main+0x538>
    242c:	f7 01       	movw	r30, r14
						sin_pitch[l] = j;
    242e:	31 93       	st	Z+, r19
    2430:	8e 2f       	mov	r24, r30
    2432:	8e 19       	sub	r24, r14
				}
				
	
				
				if(i == 60){
					for(l = 0;l<channelVal;l++){
    2434:	89 17       	cp	r24, r25
    2436:	d8 f3       	brcs	.-10     	; 0x242e <main+0x4e8>
    2438:	22 c0       	rjmp	.+68     	; 0x247e <main+0x538>
						sin_pitch[l] = j;
					}
				}
				if(i == 61){
    243a:	2d 33       	cpi	r18, 0x3D	; 61
    243c:	79 f4       	brne	.+30     	; 0x245c <main+0x516>
					for(l = 0;l<channelVal;l++){
    243e:	90 91 4e 03 	lds	r25, 0x034E
    2442:	99 23       	and	r25, r25
    2444:	81 f1       	breq	.+96     	; 0x24a6 <main+0x560>
						sin_tbl_offs[(int)l] = (j<<5) & 0xe0;
    2446:	53 2f       	mov	r21, r19
    2448:	52 95       	swap	r21
    244a:	55 0f       	add	r21, r21
    244c:	50 7e       	andi	r21, 0xE0	; 224
    244e:	f6 01       	movw	r30, r12
    2450:	51 93       	st	Z+, r21
    2452:	8e 2f       	mov	r24, r30
    2454:	8c 19       	sub	r24, r12
					for(l = 0;l<channelVal;l++){
						sin_pitch[l] = j;
					}
				}
				if(i == 61){
					for(l = 0;l<channelVal;l++){
    2456:	89 17       	cp	r24, r25
    2458:	d8 f3       	brcs	.-10     	; 0x2450 <main+0x50a>
    245a:	25 c0       	rjmp	.+74     	; 0x24a6 <main+0x560>
						sin_tbl_offs[(int)l] = (j<<5) & 0xe0;
						
					}
				}
				if(i == 31){ //modulation sin table pitch
    245c:	2f 31       	cpi	r18, 0x1F	; 31
    245e:	79 f4       	brne	.+30     	; 0x247e <main+0x538>
					sin_pitch[ch] = j ;
    2460:	f8 01       	movw	r30, r16
    2462:	e1 5b       	subi	r30, 0xB1	; 177
    2464:	fc 4f       	sbci	r31, 0xFC	; 252
    2466:	30 83       	st	Z, r19
					if( play_mode == 1   ){
    2468:	80 91 0f 01 	lds	r24, 0x010F
    246c:	81 30       	cpi	r24, 0x01	; 1
    246e:	09 f0       	breq	.+2      	; 0x2472 <main+0x52c>
    2470:	3b c0       	rjmp	.+118    	; 0x24e8 <main+0x5a2>
						sin_pitch[ch+1] = j;
    2472:	f8 01       	movw	r30, r16
    2474:	e1 5b       	subi	r30, 0xB1	; 177
    2476:	fc 4f       	sbci	r31, 0xFC	; 252
    2478:	31 83       	std	Z+1, r19	; 0x01
						sin_pitch[ch+2] = j;
    247a:	32 83       	std	Z+2, r19	; 0x02
    247c:	35 c0       	rjmp	.+106    	; 0x24e8 <main+0x5a2>
					}
				}
				
				
				if(i == 32){ //modulation sin table pitch
    247e:	20 32       	cpi	r18, 0x20	; 32
    2480:	91 f4       	brne	.+36     	; 0x24a6 <main+0x560>
					sin_tbl_offs[ch] = (j<<5) & 0xe0;
    2482:	b0 e2       	ldi	r27, 0x20	; 32
    2484:	3b 9f       	mul	r19, r27
    2486:	c0 01       	movw	r24, r0
    2488:	11 24       	eor	r1, r1
    248a:	f8 01       	movw	r30, r16
    248c:	e1 5c       	subi	r30, 0xC1	; 193
    248e:	fa 4f       	sbci	r31, 0xFA	; 250
    2490:	80 83       	st	Z, r24
					if( play_mode == 1   ){
    2492:	50 91 0f 01 	lds	r21, 0x010F
    2496:	51 30       	cpi	r21, 0x01	; 1
    2498:	89 f5       	brne	.+98     	; 0x24fc <main+0x5b6>
						sin_tbl_offs[ch+1] = (j<<5) & 0xe0;
    249a:	f8 01       	movw	r30, r16
    249c:	e1 5c       	subi	r30, 0xC1	; 193
    249e:	fa 4f       	sbci	r31, 0xFA	; 250
    24a0:	81 83       	std	Z+1, r24	; 0x01
						sin_tbl_offs[ch+2] = (j<<5) & 0xe0;
    24a2:	82 83       	std	Z+2, r24	; 0x02
    24a4:	2b c0       	rjmp	.+86     	; 0x24fc <main+0x5b6>
					}
				
				
				}

				if(i == 1){  //モジュレーション　(depth)
    24a6:	21 30       	cpi	r18, 0x01	; 1
    24a8:	f9 f4       	brne	.+62     	; 0x24e8 <main+0x5a2>
					j = j >>4;
    24aa:	a3 2e       	mov	r10, r19
    24ac:	a6 94       	lsr	r10
    24ae:	a6 94       	lsr	r10
    24b0:	a6 94       	lsr	r10
    24b2:	a6 94       	lsr	r10
					//modulation_depth[ch] = j;

					//modulation_cnt[ch] = modulation_pitch[ch];
					if( play_mode == 1  ){	
    24b4:	80 91 0f 01 	lds	r24, 0x010F
    24b8:	81 30       	cpi	r24, 0x01	; 1
    24ba:	29 f4       	brne	.+10     	; 0x24c6 <main+0x580>
						change_modulation(ch,j);	
    24bc:	6a 2d       	mov	r22, r10
    24be:	70 e0       	ldi	r23, 0x00	; 0
    24c0:	c8 01       	movw	r24, r16
    24c2:	16 d3       	rcall	.+1580   	; 0x2af0 <change_modulation>
    24c4:	82 c0       	rjmp	.+260    	; 0x25ca <main+0x684>
							
																					
					}else if(play_mode == 3){
    24c6:	83 30       	cpi	r24, 0x03	; 3
    24c8:	49 f4       	brne	.+18     	; 0x24dc <main+0x596>
						change_modulation(ch,j);
    24ca:	b1 2c       	mov	r11, r1
    24cc:	b5 01       	movw	r22, r10
    24ce:	c8 01       	movw	r24, r16
    24d0:	0f d3       	rcall	.+1566   	; 0x2af0 <change_modulation>
						change_modulation(ch+8,j);			
    24d2:	b5 01       	movw	r22, r10
    24d4:	c8 01       	movw	r24, r16
    24d6:	08 96       	adiw	r24, 0x08	; 8
    24d8:	0b d3       	rcall	.+1558   	; 0x2af0 <change_modulation>
    24da:	77 c0       	rjmp	.+238    	; 0x25ca <main+0x684>

					}else{
						if_s_write(0x0B,ch);
    24dc:	8b e0       	ldi	r24, 0x0B	; 11
    24de:	31 da       	rcall	.-2974   	; 0x1942 <if_s_write>
						if_s_write(0x11,j);			
    24e0:	6a 2d       	mov	r22, r10
    24e2:	81 e1       	ldi	r24, 0x11	; 17
    24e4:	2e da       	rcall	.-2980   	; 0x1942 <if_s_write>
    24e6:	71 c0       	rjmp	.+226    	; 0x25ca <main+0x684>
					}
				}
				if(i == 64){			//hold
    24e8:	20 34       	cpi	r18, 0x40	; 64
    24ea:	41 f4       	brne	.+16     	; 0x24fc <main+0x5b6>
					if(j < 64){
    24ec:	30 34       	cpi	r19, 0x40	; 64
    24ee:	18 f4       	brcc	.+6      	; 0x24f6 <main+0x5b0>
						// hold off
						hold_off(ch);
    24f0:	c8 01       	movw	r24, r16
    24f2:	91 d2       	rcall	.+1314   	; 0x2a16 <hold_off>
    24f4:	6a c0       	rjmp	.+212    	; 0x25ca <main+0x684>
					}else{
						//hold on
						hold_on(ch);
    24f6:	c8 01       	movw	r24, r16
    24f8:	61 d1       	rcall	.+706    	; 0x27bc <hold_on>
    24fa:	67 c0       	rjmp	.+206    	; 0x25ca <main+0x684>
					}
				}
				
				if(i == 10){				// パン
    24fc:	2a 30       	cpi	r18, 0x0A	; 10
    24fe:	09 f4       	brne	.+2      	; 0x2502 <main+0x5bc>
    2500:	64 c0       	rjmp	.+200    	; 0x25ca <main+0x684>

				}else if(i == 7){			// チャンネルボリューム
    2502:	27 30       	cpi	r18, 0x07	; 7
    2504:	99 f5       	brne	.+102    	; 0x256c <main+0x626>
					m = j>> 2;
					//channelPartLevel[ch] = m;
					m = m >> 1;
    2506:	36 95       	lsr	r19
    2508:	36 95       	lsr	r19
    250a:	36 95       	lsr	r19
					midi_ch[ch].partlevel = m;				
    250c:	f8 01       	movw	r30, r16
    250e:	e2 95       	swap	r30
    2510:	f2 95       	swap	r31
    2512:	f0 7f       	andi	r31, 0xF0	; 240
    2514:	fe 27       	eor	r31, r30
    2516:	e0 7f       	andi	r30, 0xF0	; 240
    2518:	fe 27       	eor	r31, r30
    251a:	e1 5a       	subi	r30, 0xA1	; 161
    251c:	fa 4f       	sbci	r31, 0xFA	; 250
    251e:	35 83       	std	Z+5, r19	; 0x05

					//m = pgm_read_byte(&(divtbl[(int)m][ channelExpression[(int)ch]]));
					m = pgm_read_byte(&(divtbl[(int)m][(int) midi_ch[(int)ch].expression]));
    2520:	e6 81       	ldd	r30, Z+6	; 0x06
    2522:	f0 e0       	ldi	r31, 0x00	; 0
    2524:	20 e2       	ldi	r18, 0x20	; 32
    2526:	32 9f       	mul	r19, r18
    2528:	e0 0d       	add	r30, r0
    252a:	f1 1d       	adc	r31, r1
    252c:	11 24       	eor	r1, r1
    252e:	e5 57       	subi	r30, 0x75	; 117
    2530:	fe 4f       	sbci	r31, 0xFE	; 254
    2532:	a4 90       	lpm	r10, Z
					k = m << 2;
    2534:	aa 0c       	add	r10, r10
    2536:	aa 0c       	add	r10, r10
			
					if( play_mode == 1  ){
    2538:	80 91 0f 01 	lds	r24, 0x010F
    253c:	81 30       	cpi	r24, 0x01	; 1
    253e:	29 f4       	brne	.+10     	; 0x254a <main+0x604>

						change_part_level(ch,k);
    2540:	6a 2d       	mov	r22, r10
    2542:	70 e0       	ldi	r23, 0x00	; 0
    2544:	c8 01       	movw	r24, r16
    2546:	48 d3       	rcall	.+1680   	; 0x2bd8 <change_part_level>
    2548:	40 c0       	rjmp	.+128    	; 0x25ca <main+0x684>
						
					}else if(play_mode == 3){
    254a:	83 30       	cpi	r24, 0x03	; 3
    254c:	49 f4       	brne	.+18     	; 0x2560 <main+0x61a>
						change_part_level(ch,k);
    254e:	b1 2c       	mov	r11, r1
    2550:	b5 01       	movw	r22, r10
    2552:	c8 01       	movw	r24, r16
    2554:	41 d3       	rcall	.+1666   	; 0x2bd8 <change_part_level>
						change_part_level(ch+8,k);
    2556:	b5 01       	movw	r22, r10
    2558:	c8 01       	movw	r24, r16
    255a:	08 96       	adiw	r24, 0x08	; 8
    255c:	3d d3       	rcall	.+1658   	; 0x2bd8 <change_part_level>
    255e:	35 c0       	rjmp	.+106    	; 0x25ca <main+0x684>
					}else{
						if_s_write(0x0B,ch);
    2560:	8b e0       	ldi	r24, 0x0B	; 11
    2562:	ef d9       	rcall	.-3106   	; 0x1942 <if_s_write>
						if_s_write(0x10,k);						
    2564:	6a 2d       	mov	r22, r10
    2566:	80 e1       	ldi	r24, 0x10	; 16
    2568:	ec d9       	rcall	.-3112   	; 0x1942 <if_s_write>
    256a:	2f c0       	rjmp	.+94     	; 0x25ca <main+0x684>
						
					}

					
				}else if(i == 0){					//バンクセレクト
    256c:	21 11       	cpse	r18, r1
    256e:	04 c0       	rjmp	.+8      	; 0x2578 <main+0x632>
					//j = j & 0x01;
					//j = j ^ 0x01;
					bank = j & 0x03;
    2570:	33 70       	andi	r19, 0x03	; 3
    2572:	30 93 03 03 	sts	0x0303, r19
    2576:	29 c0       	rjmp	.+82     	; 0x25ca <main+0x684>
					
				}else  if(i == 11){			// エクスプレッション
    2578:	2b 30       	cpi	r18, 0x0B	; 11
    257a:	39 f5       	brne	.+78     	; 0x25ca <main+0x684>
		
					m = (j >> 2);
    257c:	36 95       	lsr	r19
    257e:	36 95       	lsr	r19
					//channelExpression[ch] = m;
					midi_ch[ch].expression = m;							
    2580:	f8 01       	movw	r30, r16
    2582:	e2 95       	swap	r30
    2584:	f2 95       	swap	r31
    2586:	f0 7f       	andi	r31, 0xF0	; 240
    2588:	fe 27       	eor	r31, r30
    258a:	e0 7f       	andi	r30, 0xF0	; 240
    258c:	fe 27       	eor	r31, r30
    258e:	e1 5a       	subi	r30, 0xA1	; 161
    2590:	fa 4f       	sbci	r31, 0xFA	; 250
    2592:	36 83       	std	Z+6, r19	; 0x06
					//m = pgm_read_byte(&(divtbl[(int)m][channelPartLevel[(int)ch]]));
					m = pgm_read_byte(&(divtbl[(int)m][(int)midi_ch[(int)ch].partlevel]));
    2594:	e5 81       	ldd	r30, Z+5	; 0x05
    2596:	f0 e0       	ldi	r31, 0x00	; 0
    2598:	40 e2       	ldi	r20, 0x20	; 32
    259a:	34 9f       	mul	r19, r20
    259c:	e0 0d       	add	r30, r0
    259e:	f1 1d       	adc	r31, r1
    25a0:	11 24       	eor	r1, r1
    25a2:	e5 57       	subi	r30, 0x75	; 117
    25a4:	fe 4f       	sbci	r31, 0xFE	; 254
    25a6:	e4 91       	lpm	r30, Z
					k = m << 2;
    25a8:	be 2e       	mov	r11, r30
    25aa:	bb 0c       	add	r11, r11
    25ac:	bb 0c       	add	r11, r11
										
					if( play_mode == 1 ){
    25ae:	80 91 0f 01 	lds	r24, 0x010F
    25b2:	81 30       	cpi	r24, 0x01	; 1
    25b4:	29 f4       	brne	.+10     	; 0x25c0 <main+0x67a>
						change_expression(ch,k);
    25b6:	6b 2d       	mov	r22, r11
    25b8:	70 e0       	ldi	r23, 0x00	; 0
    25ba:	c8 01       	movw	r24, r16
    25bc:	34 d3       	rcall	.+1640   	; 0x2c26 <change_expression>
    25be:	05 c0       	rjmp	.+10     	; 0x25ca <main+0x684>
					}else{
						if_s_write(0x0B,ch);
    25c0:	8b e0       	ldi	r24, 0x0B	; 11
    25c2:	bf d9       	rcall	.-3202   	; 0x1942 <if_s_write>
						if_s_write(0x10,k);						
    25c4:	6b 2d       	mov	r22, r11
    25c6:	80 e1       	ldi	r24, 0x10	; 16
    25c8:	bc d9       	rcall	.-3208   	; 0x1942 <if_s_write>
	for (;;)
	{
		

		
		while (MIDI_Device_ReceiveEventPacket(&Keyboard_MIDI_Interface, &ReceivedMIDIEvent))
    25ca:	be 01       	movw	r22, r28
    25cc:	6f 5f       	subi	r22, 0xFF	; 255
    25ce:	7f 4f       	sbci	r23, 0xFF	; 255
    25d0:	83 e0       	ldi	r24, 0x03	; 3
    25d2:	91 e0       	ldi	r25, 0x01	; 1
    25d4:	ea d3       	rcall	.+2004   	; 0x2daa <MIDI_Device_ReceiveEventPacket>
    25d6:	81 11       	cpse	r24, r1
    25d8:	e4 cc       	rjmp	.-1592   	; 0x1fa2 <main+0x5c>
		
					}
				}
			}
		}
		check_midimessage(); // 送信データチェック
    25da:	e1 db       	rcall	.-2110   	; 0x1d9e <check_midimessage>
		
		//HID_Device_USBTask(&Generic_HID_Interface);
		MIDI_Device_USBTask(&Keyboard_MIDI_Interface);
    25dc:	83 e0       	ldi	r24, 0x03	; 3
    25de:	91 e0       	ldi	r25, 0x01	; 1
    25e0:	d6 d3       	rcall	.+1964   	; 0x2d8e <MIDI_Device_USBTask>
		USB_USBTask();
    25e2:	0e 94 7c 1c 	call	0x38f8	; 0x38f8 <USB_USBTask>
	}
    25e6:	f1 cf       	rjmp	.-30     	; 0x25ca <main+0x684>

000025e8 <send_atmega>:
*/

//-------------------上のコードはアセンブラで書き直した------------
void send_atmega(char c){
	
	SPDR = c;
    25e8:	8e bd       	out	0x2e, r24	; 46
	while( !(SPSR & (1<< SPIF)));
    25ea:	0d b4       	in	r0, 0x2d	; 45
    25ec:	07 fe       	sbrs	r0, 7
    25ee:	fd cf       	rjmp	.-6      	; 0x25ea <send_atmega+0x2>
	c =  SPDR;
    25f0:	8e b5       	in	r24, 0x2e	; 46
    25f2:	08 95       	ret

000025f4 <write_burst>:

}

void write_burst(){
    25f4:	cf 93       	push	r28
    25f6:	df 93       	push	r29
	int i;
	char *tone;
	tone = tone_reg;
	

	if_s_write(0x08,0x16);
    25f8:	66 e1       	ldi	r22, 0x16	; 22
    25fa:	70 e0       	ldi	r23, 0x00	; 0
    25fc:	88 e0       	ldi	r24, 0x08	; 8
    25fe:	90 e0       	ldi	r25, 0x00	; 0
    2600:	a0 d9       	rcall	.-3264   	; 0x1942 <if_s_write>

	if_s_write(0x08,0x00);
    2602:	60 e0       	ldi	r22, 0x00	; 0
    2604:	70 e0       	ldi	r23, 0x00	; 0
    2606:	88 e0       	ldi	r24, 0x08	; 8
    2608:	90 e0       	ldi	r25, 0x00	; 0
    260a:	9b d9       	rcall	.-3274   	; 0x1942 <if_s_write>
	flush_spi_buff();
    260c:	b9 d9       	rcall	.-3214   	; 0x1980 <flush_spi_buff>
	//while(send_buf_byte>0);
	
	wr_lo();
    260e:	28 98       	cbi	0x05, 0	; 5
	cli();
    2610:	f8 94       	cli
	send_atmega(0x07);
    2612:	87 e0       	ldi	r24, 0x07	; 7
    2614:	e9 df       	rcall	.-46     	; 0x25e8 <send_atmega>
	send_atmega(0x90);	
    2616:	80 e9       	ldi	r24, 0x90	; 144
    2618:	e7 df       	rcall	.-50     	; 0x25e8 <send_atmega>
}

void write_burst(){
	int i;
	char *tone;
	tone = tone_reg;
    261a:	cf e5       	ldi	r28, 0x5F	; 95
    261c:	d3 e0       	ldi	r29, 0x03	; 3
	send_atmega(0x07);
	send_atmega(0x90);	

	for(i = 0;i<480;i++){
		
		send_atmega(*tone);
    261e:	89 91       	ld	r24, Y+
    2620:	e3 df       	rcall	.-58     	; 0x25e8 <send_atmega>
	wr_lo();
	cli();
	send_atmega(0x07);
	send_atmega(0x90);	

	for(i = 0;i<480;i++){
    2622:	85 e0       	ldi	r24, 0x05	; 5
    2624:	cf 33       	cpi	r28, 0x3F	; 63
    2626:	d8 07       	cpc	r29, r24
    2628:	d1 f7       	brne	.-12     	; 0x261e <write_burst+0x2a>
		
		send_atmega(*tone);
		tone++;

	}
	send_atmega(0x80);
    262a:	80 e8       	ldi	r24, 0x80	; 128
    262c:	dd df       	rcall	.-70     	; 0x25e8 <send_atmega>
	send_atmega(0x03);
    262e:	83 e0       	ldi	r24, 0x03	; 3
    2630:	db df       	rcall	.-74     	; 0x25e8 <send_atmega>
	send_atmega(0x81);
    2632:	81 e8       	ldi	r24, 0x81	; 129
    2634:	d9 df       	rcall	.-78     	; 0x25e8 <send_atmega>
	send_atmega(0x80);
    2636:	80 e8       	ldi	r24, 0x80	; 128
    2638:	d7 df       	rcall	.-82     	; 0x25e8 <send_atmega>

	wr_hi();
    263a:	28 9a       	sbi	0x05, 0	; 5
	sei();
    263c:	78 94       	sei
}
    263e:	df 91       	pop	r29
    2640:	cf 91       	pop	r28
    2642:	08 95       	ret

00002644 <init_midich>:
};




void init_midich(void){
    2644:	cf 93       	push	r28
    2646:	df 93       	push	r29
	int i;
	
	voice_queue_top = 0;
    2648:	10 92 ef 06 	sts	0x06EF, r1
	voice_queue_tail = 0;
    264c:	10 92 02 07 	sts	0x0702, r1
	active_voice_num = 0;
    2650:	10 92 f1 06 	sts	0x06F1, r1
    2654:	10 92 f0 06 	sts	0x06F0, r1
    2658:	e3 e6       	ldi	r30, 0x63	; 99
    265a:	f6 e0       	ldi	r31, 0x06	; 6
    265c:	2f ed       	ldi	r18, 0xDF	; 223
    265e:	36 e0       	ldi	r19, 0x06	; 6
    2660:	83 ee       	ldi	r24, 0xE3	; 227
    2662:	96 e0       	ldi	r25, 0x06	; 6
    2664:	d9 01       	movw	r26, r18
	
	for(i =0;i < MAX_VOICE_NUM; i++){
		ym825_voice_ch[i].voice_ch = i;		//voice channel no
		ym825_voice_ch[i].voice_no =i;		//voice no
		ym825_voice_ch[i].midi_ch = 127;	//midi channel no
    2666:	7f e7       	ldi	r23, 0x7F	; 127
		ym825_voice_ch[i].note_no = 255;	//midi の音番号
    2668:	6f ef       	ldi	r22, 0xFF	; 255
		ym825_voice_ch[i].velocity = 32;	
    266a:	50 e2       	ldi	r21, 0x20	; 32
    266c:	4a 2f       	mov	r20, r26
    266e:	42 1b       	sub	r20, r18
    2670:	ef 01       	movw	r28, r30
    2672:	24 97       	sbiw	r28, 0x04	; 4
	voice_queue_top = 0;
	voice_queue_tail = 0;
	active_voice_num = 0;
	
	for(i =0;i < MAX_VOICE_NUM; i++){
		ym825_voice_ch[i].voice_ch = i;		//voice channel no
    2674:	48 83       	st	Y, r20
    2676:	21 96       	adiw	r28, 0x01	; 1
		ym825_voice_ch[i].voice_no =i;		//voice no
    2678:	48 83       	st	Y, r20
    267a:	22 96       	adiw	r28, 0x02	; 2
		ym825_voice_ch[i].midi_ch = 127;	//midi channel no
    267c:	78 83       	st	Y, r23
    267e:	21 97       	sbiw	r28, 0x01	; 1
		ym825_voice_ch[i].note_no = 255;	//midi の音番号
    2680:	68 83       	st	Y, r22
		ym825_voice_ch[i].velocity = 32;	
    2682:	50 83       	st	Z, r21
		ym825_voice_ch[i].next = NULL;
    2684:	13 82       	std	Z+3, r1	; 0x03
    2686:	12 82       	std	Z+2, r1	; 0x02
		
		voice_queue[i] = i;				//キューにvoiceチャンネル番号
    2688:	4d 93       	st	X+, r20
    268a:	38 96       	adiw	r30, 0x08	; 8
	
	voice_queue_top = 0;
	voice_queue_tail = 0;
	active_voice_num = 0;
	
	for(i =0;i < MAX_VOICE_NUM; i++){
    268c:	e8 17       	cp	r30, r24
    268e:	f9 07       	cpc	r31, r25
    2690:	69 f7       	brne	.-38     	; 0x266c <init_midich+0x28>
    2692:	af e5       	ldi	r26, 0x5F	; 95
    2694:	b5 e0       	ldi	r27, 0x05	; 5
    2696:	ec e6       	ldi	r30, 0x6C	; 108
    2698:	f5 e0       	ldi	r31, 0x05	; 5
    269a:	20 e0       	ldi	r18, 0x00	; 0

	}
	for(i = 0;i < 16;i++){
		midi_ch[i].voice_no = i;		//初期状態は MIDI_CH == voice_no
		midi_ch[i].hold	 = FALSE;
		midi_ch[i].pitchbend = 0x4000;
    269c:	80 e0       	ldi	r24, 0x00	; 0
    269e:	90 e4       	ldi	r25, 0x40	; 64
		midi_ch[i].modulation = 0;
		midi_ch[i].partlevel = 25;
    26a0:	39 e1       	ldi	r19, 0x19	; 25
		midi_ch[i].expression = 25;
		midi_ch[i].panport = 0;
		midi_ch[i].pitch_sens = 12;
    26a2:	6c e0       	ldi	r22, 0x0C	; 12
		midi_ch[i].voice_list = NULL;	//使用しているvoice_chのリスト
		/*-------------------------------note on　時に一緒に書きこむ情報 */
		midi_ch[i].reg_16 = 0x30;	//ch_vol,expression
    26a4:	50 e3       	ldi	r21, 0x30	; 48
		midi_ch[i].reg_17 = 0x00;	//vib
		midi_ch[i].reg_18 = 0x08;	//pitchbend_hi
    26a6:	48 e0       	ldi	r20, 0x08	; 8
		
		voice_queue[i] = i;				//キューにvoiceチャンネル番号

	}
	for(i = 0;i < 16;i++){
		midi_ch[i].voice_no = i;		//初期状態は MIDI_CH == voice_no
    26a8:	2c 93       	st	X, r18
    26aa:	ef 01       	movw	r28, r30
    26ac:	2c 97       	sbiw	r28, 0x0c	; 12
		midi_ch[i].hold	 = FALSE;
    26ae:	18 82       	st	Y, r1
		midi_ch[i].pitchbend = 0x4000;
    26b0:	13 96       	adiw	r26, 0x03	; 3
    26b2:	9c 93       	st	X, r25
    26b4:	8e 93       	st	-X, r24
    26b6:	12 97       	sbiw	r26, 0x02	; 2
    26b8:	23 96       	adiw	r28, 0x03	; 3
		midi_ch[i].modulation = 0;
    26ba:	18 82       	st	Y, r1
    26bc:	21 96       	adiw	r28, 0x01	; 1
		midi_ch[i].partlevel = 25;
    26be:	38 83       	st	Y, r19
    26c0:	21 96       	adiw	r28, 0x01	; 1
		midi_ch[i].expression = 25;
    26c2:	38 83       	st	Y, r19
    26c4:	21 96       	adiw	r28, 0x01	; 1
		midi_ch[i].panport = 0;
    26c6:	18 82       	st	Y, r1
    26c8:	21 96       	adiw	r28, 0x01	; 1
		midi_ch[i].pitch_sens = 12;
    26ca:	68 83       	st	Y, r22
		midi_ch[i].voice_list = NULL;	//使用しているvoice_chのリスト
    26cc:	12 82       	std	Z+2, r1	; 0x02
    26ce:	11 82       	std	Z+1, r1	; 0x01
    26d0:	22 96       	adiw	r28, 0x02	; 2
		/*-------------------------------note on　時に一緒に書きこむ情報 */
		midi_ch[i].reg_16 = 0x30;	//ch_vol,expression
    26d2:	58 83       	st	Y, r21
    26d4:	21 96       	adiw	r28, 0x01	; 1
		midi_ch[i].reg_17 = 0x00;	//vib
    26d6:	18 82       	st	Y, r1
    26d8:	21 96       	adiw	r28, 0x01	; 1
		midi_ch[i].reg_18 = 0x08;	//pitchbend_hi
    26da:	48 83       	st	Y, r20
		midi_ch[i].reg_19 = 0x00;	//pitchbend_lo
    26dc:	10 82       	st	Z, r1
    26de:	2f 5f       	subi	r18, 0xFF	; 255
    26e0:	50 96       	adiw	r26, 0x10	; 16
    26e2:	70 96       	adiw	r30, 0x10	; 16
		ym825_voice_ch[i].next = NULL;
		
		voice_queue[i] = i;				//キューにvoiceチャンネル番号

	}
	for(i = 0;i < 16;i++){
    26e4:	20 31       	cpi	r18, 0x10	; 16
    26e6:	01 f7       	brne	.-64     	; 0x26a8 <init_midich+0x64>
		midi_ch[i].reg_16 = 0x30;	//ch_vol,expression
		midi_ch[i].reg_17 = 0x00;	//vib
		midi_ch[i].reg_18 = 0x08;	//pitchbend_hi
		midi_ch[i].reg_19 = 0x00;	//pitchbend_lo
	}
}
    26e8:	df 91       	pop	r29
    26ea:	cf 91       	pop	r28
    26ec:	08 95       	ret

000026ee <return_voice>:

/*
	queueにvoice_ch番号を戻す

*/
int  return_voice(uint8_t ch,uint8_t tone_no){
    26ee:	cf 93       	push	r28
    26f0:	df 93       	push	r29
	struct VoiceChannel **p;
	int voice_ch;
	int i;

	
	p = &(midi_ch[ch].voice_list);
    26f2:	90 e0       	ldi	r25, 0x00	; 0
	voice_ch = NOT_GET;
	
	while( *p != NULL){
    26f4:	fc 01       	movw	r30, r24
    26f6:	e2 95       	swap	r30
    26f8:	f2 95       	swap	r31
    26fa:	f0 7f       	andi	r31, 0xF0	; 240
    26fc:	fe 27       	eor	r31, r30
    26fe:	e0 7f       	andi	r30, 0xF0	; 240
    2700:	fe 27       	eor	r31, r30
    2702:	e1 5a       	subi	r30, 0xA1	; 161
    2704:	fa 4f       	sbci	r31, 0xFA	; 250
    2706:	a6 85       	ldd	r26, Z+14	; 0x0e
    2708:	b7 85       	ldd	r27, Z+15	; 0x0f
    270a:	10 97       	sbiw	r26, 0x00	; 0
    270c:	09 f4       	brne	.+2      	; 0x2710 <return_voice+0x22>
    270e:	51 c0       	rjmp	.+162    	; 0x27b2 <return_voice+0xc4>
	
		if( (*p)->note_no == tone_no){
    2710:	12 96       	adiw	r26, 0x02	; 2
    2712:	2c 91       	ld	r18, X
    2714:	12 97       	sbiw	r26, 0x02	; 2
    2716:	26 13       	cpse	r18, r22
    2718:	43 c0       	rjmp	.+134    	; 0x27a0 <return_voice+0xb2>
	struct VoiceChannel **p;
	int voice_ch;
	int i;

	
	p = &(midi_ch[ch].voice_list);
    271a:	ec 01       	movw	r28, r24
    271c:	c2 95       	swap	r28
    271e:	d2 95       	swap	r29
    2720:	d0 7f       	andi	r29, 0xF0	; 240
    2722:	dc 27       	eor	r29, r28
    2724:	c0 7f       	andi	r28, 0xF0	; 240
    2726:	dc 27       	eor	r29, r28
    2728:	c3 59       	subi	r28, 0x93	; 147
    272a:	da 4f       	sbci	r29, 0xFA	; 250
	voice_ch = NOT_GET;
	
	while( *p != NULL){
    272c:	fd 01       	movw	r30, r26
    272e:	07 c0       	rjmp	.+14     	; 0x273e <return_voice+0x50>
	
		if( (*p)->note_no == tone_no){
    2730:	22 81       	ldd	r18, Z+2	; 0x02
    2732:	26 17       	cp	r18, r22
    2734:	11 f0       	breq	.+4      	; 0x273a <return_voice+0x4c>

	
	p = &(midi_ch[ch].voice_list);
	voice_ch = NOT_GET;
	
	while( *p != NULL){
    2736:	df 01       	movw	r26, r30
    2738:	33 c0       	rjmp	.+102    	; 0x27a0 <return_voice+0xb2>
				voice_queue_tail = 0;
			}
			active_voice_num--;
			break;
		}
		p = &( (*p)->next);
    273a:	ed 01       	movw	r28, r26
    273c:	26 96       	adiw	r28, 0x06	; 6
	voice_ch = NOT_GET;
	
	while( *p != NULL){
	
		if( (*p)->note_no == tone_no){
			if( midi_ch[ch].hold == TRUE){
    273e:	dc 01       	movw	r26, r24
    2740:	a2 95       	swap	r26
    2742:	b2 95       	swap	r27
    2744:	b0 7f       	andi	r27, 0xF0	; 240
    2746:	ba 27       	eor	r27, r26
    2748:	a0 7f       	andi	r26, 0xF0	; 240
    274a:	ba 27       	eor	r27, r26
    274c:	a1 5a       	subi	r26, 0xA1	; 161
    274e:	ba 4f       	sbci	r27, 0xFA	; 250
    2750:	11 96       	adiw	r26, 0x01	; 1
    2752:	8c 91       	ld	r24, X
    2754:	81 30       	cpi	r24, 0x01	; 1
    2756:	21 f4       	brne	.+8      	; 0x2760 <return_voice+0x72>
				(*p)->hold = TRUE;		//holdならフラグを立ててキューへ戻さない
    2758:	85 83       	std	Z+5, r24	; 0x05
	int voice_ch;
	int i;

	
	p = &(midi_ch[ch].voice_list);
	voice_ch = NOT_GET;
    275a:	8f ef       	ldi	r24, 0xFF	; 255
    275c:	90 e0       	ldi	r25, 0x00	; 0
	while( *p != NULL){
	
		if( (*p)->note_no == tone_no){
			if( midi_ch[ch].hold == TRUE){
				(*p)->hold = TRUE;		//holdならフラグを立ててキューへ戻さない
				break;
    275e:	2b c0       	rjmp	.+86     	; 0x27b6 <return_voice+0xc8>
			}
			voice_ch = (*p)->voice_ch;	
    2760:	40 81       	ld	r20, Z
    2762:	84 2f       	mov	r24, r20
    2764:	90 e0       	ldi	r25, 0x00	; 0
			*p = ((*p)->next);
    2766:	26 81       	ldd	r18, Z+6	; 0x06
    2768:	37 81       	ldd	r19, Z+7	; 0x07
    276a:	39 83       	std	Y+1, r19	; 0x01
    276c:	28 83       	st	Y, r18
			
			voice_queue[voice_queue_tail++] = voice_ch;
    276e:	e0 91 02 07 	lds	r30, 0x0702
    2772:	21 e0       	ldi	r18, 0x01	; 1
    2774:	2e 0f       	add	r18, r30
    2776:	20 93 02 07 	sts	0x0702, r18
    277a:	f0 e0       	ldi	r31, 0x00	; 0
    277c:	e1 52       	subi	r30, 0x21	; 33
    277e:	f9 4f       	sbci	r31, 0xF9	; 249
    2780:	40 83       	st	Z, r20
			if(voice_queue_tail == MAX_VOICE_NUM){
    2782:	20 31       	cpi	r18, 0x10	; 16
    2784:	11 f4       	brne	.+4      	; 0x278a <return_voice+0x9c>
				voice_queue_tail = 0;
    2786:	10 92 02 07 	sts	0x0702, r1
			}
			active_voice_num--;
    278a:	20 91 f0 06 	lds	r18, 0x06F0
    278e:	30 91 f1 06 	lds	r19, 0x06F1
    2792:	21 50       	subi	r18, 0x01	; 1
    2794:	31 09       	sbc	r19, r1
    2796:	30 93 f1 06 	sts	0x06F1, r19
    279a:	20 93 f0 06 	sts	0x06F0, r18
			break;
    279e:	0b c0       	rjmp	.+22     	; 0x27b6 <return_voice+0xc8>

	
	p = &(midi_ch[ch].voice_list);
	voice_ch = NOT_GET;
	
	while( *p != NULL){
    27a0:	16 96       	adiw	r26, 0x06	; 6
    27a2:	ed 91       	ld	r30, X+
    27a4:	fc 91       	ld	r31, X
    27a6:	17 97       	sbiw	r26, 0x07	; 7
    27a8:	30 97       	sbiw	r30, 0x00	; 0
    27aa:	11 f6       	brne	.-124    	; 0x2730 <return_voice+0x42>
	int voice_ch;
	int i;

	
	p = &(midi_ch[ch].voice_list);
	voice_ch = NOT_GET;
    27ac:	8f ef       	ldi	r24, 0xFF	; 255
    27ae:	90 e0       	ldi	r25, 0x00	; 0
    27b0:	02 c0       	rjmp	.+4      	; 0x27b6 <return_voice+0xc8>
    27b2:	8f ef       	ldi	r24, 0xFF	; 255
    27b4:	90 e0       	ldi	r25, 0x00	; 0
		}
		p = &( (*p)->next);
	}
	return voice_ch;
		
}
    27b6:	df 91       	pop	r29
    27b8:	cf 91       	pop	r28
    27ba:	08 95       	ret

000027bc <hold_on>:



void hold_on(ch){

	midi_ch[ch].hold = TRUE;
    27bc:	82 95       	swap	r24
    27be:	92 95       	swap	r25
    27c0:	90 7f       	andi	r25, 0xF0	; 240
    27c2:	98 27       	eor	r25, r24
    27c4:	80 7f       	andi	r24, 0xF0	; 240
    27c6:	98 27       	eor	r25, r24
    27c8:	fc 01       	movw	r30, r24
    27ca:	e1 5a       	subi	r30, 0xA1	; 161
    27cc:	fa 4f       	sbci	r31, 0xFA	; 250
    27ce:	81 e0       	ldi	r24, 0x01	; 1
    27d0:	81 83       	std	Z+1, r24	; 0x01
    27d2:	08 95       	ret

000027d4 <mute>:
	
}



void mute(uint8_t ch){
    27d4:	cf 93       	push	r28
    27d6:	df 93       	push	r29
	if_s_write(0x0b,ch);
    27d8:	c8 2f       	mov	r28, r24
    27da:	d0 e0       	ldi	r29, 0x00	; 0
    27dc:	be 01       	movw	r22, r28
    27de:	8b e0       	ldi	r24, 0x0B	; 11
    27e0:	90 e0       	ldi	r25, 0x00	; 0
    27e2:	af d8       	rcall	.-3746   	; 0x1942 <if_s_write>
	//if_s_write(0x0F, ym825_voice_ch[ch].voice_no+0x60);
	if_s_write(0x0F, ym825_voice_ch[ch].voice_no + 0x20);
    27e4:	cc 0f       	add	r28, r28
    27e6:	dd 1f       	adc	r29, r29
    27e8:	cc 0f       	add	r28, r28
    27ea:	dd 1f       	adc	r29, r29
    27ec:	cc 0f       	add	r28, r28
    27ee:	dd 1f       	adc	r29, r29
    27f0:	c1 5a       	subi	r28, 0xA1	; 161
    27f2:	d9 4f       	sbci	r29, 0xF9	; 249
    27f4:	69 81       	ldd	r22, Y+1	; 0x01
    27f6:	70 e0       	ldi	r23, 0x00	; 0
    27f8:	60 5e       	subi	r22, 0xE0	; 224
    27fa:	7f 4f       	sbci	r23, 0xFF	; 255
    27fc:	8f e0       	ldi	r24, 0x0F	; 15
    27fe:	90 e0       	ldi	r25, 0x00	; 0
    2800:	a0 d8       	rcall	.-3776   	; 0x1942 <if_s_write>
}
    2802:	df 91       	pop	r29
    2804:	cf 91       	pop	r28
    2806:	08 95       	ret

00002808 <get_voice>:

/*
	queueから利用可能な最も古く開放されたvoiceチャンネル番号を返す
	可能なvoiceチャンネルが無い場合はNOT_GETを返す
*/
int get_voice(uint8_t ch,uint8_t tone_no,uint8_t velo){
    2808:	df 92       	push	r13
    280a:	ef 92       	push	r14
    280c:	ff 92       	push	r15
    280e:	0f 93       	push	r16
    2810:	1f 93       	push	r17
    2812:	cf 93       	push	r28
    2814:	df 93       	push	r29
    2816:	e8 2e       	mov	r14, r24
    2818:	f6 2e       	mov	r15, r22
    281a:	d4 2e       	mov	r13, r20
	int voice_ch;
	struct VoiceChannel *p;
	
	voice_ch = NOT_GET;
	p = midi_ch[ch].voice_list;
    281c:	08 2f       	mov	r16, r24
    281e:	10 e0       	ldi	r17, 0x00	; 0
    2820:	f8 01       	movw	r30, r16
    2822:	e2 95       	swap	r30
    2824:	f2 95       	swap	r31
    2826:	f0 7f       	andi	r31, 0xF0	; 240
    2828:	fe 27       	eor	r31, r30
    282a:	e0 7f       	andi	r30, 0xF0	; 240
    282c:	fe 27       	eor	r31, r30
    282e:	e1 5a       	subi	r30, 0xA1	; 161
    2830:	fa 4f       	sbci	r31, 0xFA	; 250
    2832:	06 84       	ldd	r0, Z+14	; 0x0e
    2834:	f7 85       	ldd	r31, Z+15	; 0x0f
    2836:	e0 2d       	mov	r30, r0
	while(p != NULL){
    2838:	30 97       	sbiw	r30, 0x00	; 0
    283a:	a9 f0       	breq	.+42     	; 0x2866 <get_voice+0x5e>
		if(p->note_no == tone_no){
    283c:	82 81       	ldd	r24, Z+2	; 0x02
    283e:	86 13       	cpse	r24, r22
    2840:	0d c0       	rjmp	.+26     	; 0x285c <get_voice+0x54>
    2842:	03 c0       	rjmp	.+6      	; 0x284a <get_voice+0x42>
    2844:	82 81       	ldd	r24, Z+2	; 0x02
    2846:	8f 11       	cpse	r24, r15
    2848:	09 c0       	rjmp	.+18     	; 0x285c <get_voice+0x54>
			//if(p->hold == TRUE){

				voice_ch =  p->voice_ch;
    284a:	c0 81       	ld	r28, Z
    284c:	d0 e0       	ldi	r29, 0x00	; 0
				mute(voice_ch);			
    284e:	ce 01       	movw	r24, r28
    2850:	c1 df       	rcall	.-126    	; 0x27d4 <mute>
			//}
		}
		
		p = p->next;
	}
	if(voice_ch != NOT_GET){
    2852:	cf 3f       	cpi	r28, 0xFF	; 255
    2854:	d1 05       	cpc	r29, r1
    2856:	09 f0       	breq	.+2      	; 0x285a <get_voice+0x52>
    2858:	47 c0       	rjmp	.+142    	; 0x28e8 <get_voice+0xe0>
    285a:	05 c0       	rjmp	.+10     	; 0x2866 <get_voice+0x5e>
				mute(voice_ch);			
				break;
			//}
		}
		
		p = p->next;
    285c:	06 80       	ldd	r0, Z+6	; 0x06
    285e:	f7 81       	ldd	r31, Z+7	; 0x07
    2860:	e0 2d       	mov	r30, r0
	int voice_ch;
	struct VoiceChannel *p;
	
	voice_ch = NOT_GET;
	p = midi_ch[ch].voice_list;
	while(p != NULL){
    2862:	30 97       	sbiw	r30, 0x00	; 0
    2864:	79 f7       	brne	.-34     	; 0x2844 <get_voice+0x3c>
	if(voice_ch != NOT_GET){
		return voice_ch;
	}

	
	if(active_voice_num == MAX_VOICE_NUM){
    2866:	20 91 f0 06 	lds	r18, 0x06F0
    286a:	30 91 f1 06 	lds	r19, 0x06F1
    286e:	20 31       	cpi	r18, 0x10	; 16
    2870:	31 05       	cpc	r19, r1
    2872:	e9 f1       	breq	.+122    	; 0x28ee <get_voice+0xe6>
		return NOT_GET;
	}
	voice_ch = voice_queue[voice_queue_top++];
    2874:	e0 91 ef 06 	lds	r30, 0x06EF
    2878:	81 e0       	ldi	r24, 0x01	; 1
    287a:	8e 0f       	add	r24, r30
    287c:	80 93 ef 06 	sts	0x06EF, r24
    2880:	f0 e0       	ldi	r31, 0x00	; 0
    2882:	e1 52       	subi	r30, 0x21	; 33
    2884:	f9 4f       	sbci	r31, 0xF9	; 249
    2886:	40 81       	ld	r20, Z
    2888:	50 e0       	ldi	r21, 0x00	; 0
	if(voice_queue_top == MAX_VOICE_NUM){
    288a:	80 31       	cpi	r24, 0x10	; 16
    288c:	11 f4       	brne	.+4      	; 0x2892 <get_voice+0x8a>
		voice_queue_top = 0;
    288e:	10 92 ef 06 	sts	0x06EF, r1
	}
		active_voice_num++;
    2892:	2f 5f       	subi	r18, 0xFF	; 255
    2894:	3f 4f       	sbci	r19, 0xFF	; 255
    2896:	30 93 f1 06 	sts	0x06F1, r19
    289a:	20 93 f0 06 	sts	0x06F0, r18
	
	ym825_voice_ch[voice_ch].voice_no = midi_ch[ch].voice_no;
    289e:	fa 01       	movw	r30, r20
    28a0:	ee 0f       	add	r30, r30
    28a2:	ff 1f       	adc	r31, r31
    28a4:	ee 0f       	add	r30, r30
    28a6:	ff 1f       	adc	r31, r31
    28a8:	ee 0f       	add	r30, r30
    28aa:	ff 1f       	adc	r31, r31
    28ac:	e1 5a       	subi	r30, 0xA1	; 161
    28ae:	f9 4f       	sbci	r31, 0xF9	; 249
    28b0:	d8 01       	movw	r26, r16
    28b2:	a2 95       	swap	r26
    28b4:	b2 95       	swap	r27
    28b6:	b0 7f       	andi	r27, 0xF0	; 240
    28b8:	ba 27       	eor	r27, r26
    28ba:	a0 7f       	andi	r26, 0xF0	; 240
    28bc:	ba 27       	eor	r27, r26
    28be:	a1 5a       	subi	r26, 0xA1	; 161
    28c0:	ba 4f       	sbci	r27, 0xFA	; 250
    28c2:	8c 91       	ld	r24, X
    28c4:	81 83       	std	Z+1, r24	; 0x01
	ym825_voice_ch[voice_ch].note_no = tone_no;
    28c6:	f2 82       	std	Z+2, r15	; 0x02
	ym825_voice_ch[voice_ch].midi_ch = ch;
    28c8:	e3 82       	std	Z+3, r14	; 0x03
	ym825_voice_ch[voice_ch].velocity = velo;
    28ca:	d4 82       	std	Z+4, r13	; 0x04
	ym825_voice_ch[voice_ch].next = midi_ch[ch].voice_list;
    28cc:	1e 96       	adiw	r26, 0x0e	; 14
    28ce:	8d 91       	ld	r24, X+
    28d0:	9c 91       	ld	r25, X
    28d2:	1f 97       	sbiw	r26, 0x0f	; 15
    28d4:	97 83       	std	Z+7, r25	; 0x07
    28d6:	86 83       	std	Z+6, r24	; 0x06
	ym825_voice_ch[voice_ch].hold = FALSE;
    28d8:	15 82       	std	Z+5, r1	; 0x05
	midi_ch[ch].voice_list = &(ym825_voice_ch[voice_ch]);
    28da:	1f 96       	adiw	r26, 0x0f	; 15
    28dc:	fc 93       	st	X, r31
    28de:	ee 93       	st	-X, r30
    28e0:	1e 97       	sbiw	r26, 0x0e	; 14

	return voice_ch;
    28e2:	84 2f       	mov	r24, r20
    28e4:	95 2f       	mov	r25, r21
    28e6:	05 c0       	rjmp	.+10     	; 0x28f2 <get_voice+0xea>
	p = midi_ch[ch].voice_list;
	while(p != NULL){
		if(p->note_no == tone_no){
			//if(p->hold == TRUE){

				voice_ch =  p->voice_ch;
    28e8:	8c 2f       	mov	r24, r28
    28ea:	9d 2f       	mov	r25, r29
    28ec:	02 c0       	rjmp	.+4      	; 0x28f2 <get_voice+0xea>
		return voice_ch;
	}

	
	if(active_voice_num == MAX_VOICE_NUM){
		return NOT_GET;
    28ee:	8f ef       	ldi	r24, 0xFF	; 255
    28f0:	90 e0       	ldi	r25, 0x00	; 0
	ym825_voice_ch[voice_ch].next = midi_ch[ch].voice_list;
	ym825_voice_ch[voice_ch].hold = FALSE;
	midi_ch[ch].voice_list = &(ym825_voice_ch[voice_ch]);

	return voice_ch;
}
    28f2:	df 91       	pop	r29
    28f4:	cf 91       	pop	r28
    28f6:	1f 91       	pop	r17
    28f8:	0f 91       	pop	r16
    28fa:	ff 90       	pop	r15
    28fc:	ef 90       	pop	r14
    28fe:	df 90       	pop	r13
    2900:	08 95       	ret

00002902 <note_on>:
}




void note_on(uint8_t midich,uint8_t voicech,uint8_t i,uint8_t j,uint8_t voice_no){
    2902:	ef 92       	push	r14
    2904:	ff 92       	push	r15
    2906:	0f 93       	push	r16
    2908:	1f 93       	push	r17
    290a:	cf 93       	push	r28
    290c:	df 93       	push	r29
    290e:	c8 2f       	mov	r28, r24
    2910:	d4 2f       	mov	r29, r20
    2912:	12 2f       	mov	r17, r18
	
	uint8_t  block,noteNo,no;
	uint16_t fnum,fnum_hi,fnum_lo;
	
	channel_noteno[voicech] = i;			//monoモード消音用
    2914:	70 e0       	ldi	r23, 0x00	; 0
    2916:	db 01       	movw	r26, r22
    2918:	ae 50       	subi	r26, 0x0E	; 14
    291a:	b9 4f       	sbci	r27, 0xF9	; 249
    291c:	4c 93       	st	X, r20
	//modulation_cnt[voicech] = modulation_pitch[voicech];	 
	//sin_pointer[voicech] = 0;
	j = j & 0x7C;  //  (j >>2 ) << 2);

	
	if_s_write(0x0b,voicech);
    291e:	8b e0       	ldi	r24, 0x0B	; 11
    2920:	90 e0       	ldi	r25, 0x00	; 0
    2922:	0f d8       	rcall	.-4066   	; 0x1942 <if_s_write>
	
	channel_noteno[voicech] = i;			//monoモード消音用
	//modulation_tblpointer[(int)voicech] = 0; // or 0x1f	
	//modulation_cnt[voicech] = modulation_pitch[voicech];	 
	//sin_pointer[voicech] = 0;
	j = j & 0x7C;  //  (j >>2 ) << 2);
    2924:	1c 77       	andi	r17, 0x7C	; 124

	
	if_s_write(0x0b,voicech);
	if_s_write(0x0C,j);  // #12
    2926:	61 2f       	mov	r22, r17
    2928:	70 e0       	ldi	r23, 0x00	; 0
    292a:	8c e0       	ldi	r24, 0x0C	; 12
    292c:	90 e0       	ldi	r25, 0x00	; 0
    292e:	09 d8       	rcall	.-4078   	; 0x1942 <if_s_write>

	i += 1;
    2930:	df 5f       	subi	r29, 0xFF	; 255

	no = div12mod[i];
    2932:	ed 2f       	mov	r30, r29
    2934:	f0 e0       	ldi	r31, 0x00	; 0
    2936:	e5 5d       	subi	r30, 0xD5	; 213
    2938:	fe 4f       	sbci	r31, 0xFE	; 254
    293a:	80 81       	ld	r24, Z
	block = (no & 0xf0) >> 4;
	noteNo = no & 0x0f;
    293c:	e8 2f       	mov	r30, r24
    293e:	ef 70       	andi	r30, 0x0F	; 15
	fnum = p_freq[noteNo];
    2940:	f0 e0       	ldi	r31, 0x00	; 0
    2942:	ee 0f       	add	r30, r30
    2944:	ff 1f       	adc	r31, r31
    2946:	ef 5e       	subi	r30, 0xEF	; 239
    2948:	fe 4f       	sbci	r31, 0xFE	; 254
    294a:	e0 80       	ld	r14, Z
    294c:	f1 80       	ldd	r15, Z+1	; 0x01

	fnum_hi =((fnum >> 4) & 0x38) | (block & 0x07);
    294e:	b7 01       	movw	r22, r14
    2950:	72 95       	swap	r23
    2952:	62 95       	swap	r22
    2954:	6f 70       	andi	r22, 0x0F	; 15
    2956:	67 27       	eor	r22, r23
    2958:	7f 70       	andi	r23, 0x0F	; 15
    295a:	67 27       	eor	r22, r23
    295c:	68 73       	andi	r22, 0x38	; 56
    295e:	77 27       	eor	r23, r23
	if_s_write(0x0C,j);  // #12

	i += 1;

	no = div12mod[i];
	block = (no & 0xf0) >> 4;
    2960:	82 95       	swap	r24
    2962:	8f 70       	andi	r24, 0x0F	; 15
	noteNo = no & 0x0f;
	fnum = p_freq[noteNo];

	fnum_hi =((fnum >> 4) & 0x38) | (block & 0x07);
    2964:	87 70       	andi	r24, 0x07	; 7
    2966:	68 2b       	or	r22, r24
	fnum_lo = (fnum) & 0x7f;
	if_s_write(0x0D,fnum_hi);
    2968:	8d e0       	ldi	r24, 0x0D	; 13
    296a:	90 e0       	ldi	r25, 0x00	; 0
    296c:	0e 94 a1 0c 	call	0x1942	; 0x1942 <if_s_write>
	block = (no & 0xf0) >> 4;
	noteNo = no & 0x0f;
	fnum = p_freq[noteNo];

	fnum_hi =((fnum >> 4) & 0x38) | (block & 0x07);
	fnum_lo = (fnum) & 0x7f;
    2970:	b7 01       	movw	r22, r14
    2972:	6f 77       	andi	r22, 0x7F	; 127
    2974:	77 27       	eor	r23, r23
	if_s_write(0x0D,fnum_hi);
	if_s_write(0x0E,fnum_lo);
    2976:	8e e0       	ldi	r24, 0x0E	; 14
    2978:	90 e0       	ldi	r25, 0x00	; 0
    297a:	0e 94 a1 0c 	call	0x1942	; 0x1942 <if_s_write>
	
	
	if_s_write(0x10,midi_ch[midich].reg_16);
    297e:	80 e1       	ldi	r24, 0x10	; 16
    2980:	c8 9f       	mul	r28, r24
    2982:	e0 01       	movw	r28, r0
    2984:	11 24       	eor	r1, r1
    2986:	c1 5a       	subi	r28, 0xA1	; 161
    2988:	da 4f       	sbci	r29, 0xFA	; 250
    298a:	6a 85       	ldd	r22, Y+10	; 0x0a
    298c:	70 e0       	ldi	r23, 0x00	; 0
    298e:	80 e1       	ldi	r24, 0x10	; 16
    2990:	90 e0       	ldi	r25, 0x00	; 0
    2992:	0e 94 a1 0c 	call	0x1942	; 0x1942 <if_s_write>
	if_s_write(0x11,midi_ch[midich].reg_17);
    2996:	6b 85       	ldd	r22, Y+11	; 0x0b
    2998:	70 e0       	ldi	r23, 0x00	; 0
    299a:	81 e1       	ldi	r24, 0x11	; 17
    299c:	90 e0       	ldi	r25, 0x00	; 0
    299e:	0e 94 a1 0c 	call	0x1942	; 0x1942 <if_s_write>
	if_s_write(0x12,midi_ch[midich].reg_18);
    29a2:	6c 85       	ldd	r22, Y+12	; 0x0c
    29a4:	70 e0       	ldi	r23, 0x00	; 0
    29a6:	82 e1       	ldi	r24, 0x12	; 18
    29a8:	90 e0       	ldi	r25, 0x00	; 0
    29aa:	0e 94 a1 0c 	call	0x1942	; 0x1942 <if_s_write>
	if_s_write(0x13,midi_ch[midich].reg_19);
    29ae:	6d 85       	ldd	r22, Y+13	; 0x0d
    29b0:	70 e0       	ldi	r23, 0x00	; 0
    29b2:	83 e1       	ldi	r24, 0x13	; 19
    29b4:	90 e0       	ldi	r25, 0x00	; 0
    29b6:	0e 94 a1 0c 	call	0x1942	; 0x1942 <if_s_write>
	if_s_write(0x14,0);
    29ba:	60 e0       	ldi	r22, 0x00	; 0
    29bc:	70 e0       	ldi	r23, 0x00	; 0
    29be:	84 e1       	ldi	r24, 0x14	; 20
    29c0:	90 e0       	ldi	r25, 0x00	; 0
    29c2:	0e 94 a1 0c 	call	0x1942	; 0x1942 <if_s_write>

//	PORTC ^= 0x80;					//LDE点滅

	if_s_write(0x0f,0x40|voice_no);	
    29c6:	00 64       	ori	r16, 0x40	; 64
    29c8:	60 2f       	mov	r22, r16
    29ca:	70 e0       	ldi	r23, 0x00	; 0
    29cc:	8f e0       	ldi	r24, 0x0F	; 15
    29ce:	90 e0       	ldi	r25, 0x00	; 0
    29d0:	0e 94 a1 0c 	call	0x1942	; 0x1942 <if_s_write>

	
}
    29d4:	df 91       	pop	r29
    29d6:	cf 91       	pop	r28
    29d8:	1f 91       	pop	r17
    29da:	0f 91       	pop	r16
    29dc:	ff 90       	pop	r15
    29de:	ef 90       	pop	r14
    29e0:	08 95       	ret

000029e2 <note_off>:

			
void note_off(char voice_ch){
    29e2:	cf 93       	push	r28
    29e4:	df 93       	push	r29
	//setChannel(ch);
	if_s_write(0x0b,voice_ch);
    29e6:	c8 2f       	mov	r28, r24
    29e8:	d0 e0       	ldi	r29, 0x00	; 0
    29ea:	be 01       	movw	r22, r28
    29ec:	8b e0       	ldi	r24, 0x0B	; 11
    29ee:	90 e0       	ldi	r25, 0x00	; 0
    29f0:	0e 94 a1 0c 	call	0x1942	; 0x1942 <if_s_write>
	if_s_write(0x0F, ym825_voice_ch[voice_ch].voice_no);
    29f4:	cc 0f       	add	r28, r28
    29f6:	dd 1f       	adc	r29, r29
    29f8:	cc 0f       	add	r28, r28
    29fa:	dd 1f       	adc	r29, r29
    29fc:	cc 0f       	add	r28, r28
    29fe:	dd 1f       	adc	r29, r29
    2a00:	c1 5a       	subi	r28, 0xA1	; 161
    2a02:	d9 4f       	sbci	r29, 0xF9	; 249
    2a04:	69 81       	ldd	r22, Y+1	; 0x01
    2a06:	70 e0       	ldi	r23, 0x00	; 0
    2a08:	8f e0       	ldi	r24, 0x0F	; 15
    2a0a:	90 e0       	ldi	r25, 0x00	; 0
    2a0c:	0e 94 a1 0c 	call	0x1942	; 0x1942 <if_s_write>
	
	
	
	
}
    2a10:	df 91       	pop	r29
    2a12:	cf 91       	pop	r28
    2a14:	08 95       	ret

00002a16 <hold_off>:
 ホールド中のvoice_chをキューへ戻す
 
 */


void hold_off(ch){
    2a16:	1f 93       	push	r17
    2a18:	cf 93       	push	r28
    2a1a:	df 93       	push	r29
	struct VoiceChannel **p;
	int voice_ch;
	
	midi_ch[ch].hold = FALSE;
    2a1c:	82 95       	swap	r24
    2a1e:	92 95       	swap	r25
    2a20:	90 7f       	andi	r25, 0xF0	; 240
    2a22:	98 27       	eor	r25, r24
    2a24:	80 7f       	andi	r24, 0xF0	; 240
    2a26:	98 27       	eor	r25, r24
    2a28:	fc 01       	movw	r30, r24
    2a2a:	e1 5a       	subi	r30, 0xA1	; 161
    2a2c:	fa 4f       	sbci	r31, 0xFA	; 250
    2a2e:	11 82       	std	Z+1, r1	; 0x01
	
	p = &(midi_ch[ch].voice_list);
    2a30:	ec 01       	movw	r28, r24
    2a32:	c3 59       	subi	r28, 0x93	; 147
    2a34:	da 4f       	sbci	r29, 0xFA	; 250
	
	while( *p != NULL){
    2a36:	27 c0       	rjmp	.+78     	; 0x2a86 <hold_off+0x70>
		if( (*p)->hold == TRUE){
    2a38:	85 81       	ldd	r24, Z+5	; 0x05
    2a3a:	81 30       	cpi	r24, 0x01	; 1
    2a3c:	11 f5       	brne	.+68     	; 0x2a82 <hold_off+0x6c>
			voice_ch = (*p)->voice_ch;	
    2a3e:	10 81       	ld	r17, Z
			note_off(voice_ch);
    2a40:	81 2f       	mov	r24, r17
    2a42:	90 e0       	ldi	r25, 0x00	; 0
    2a44:	ce df       	rcall	.-100    	; 0x29e2 <note_off>
			
			*p = ((*p)->next);
    2a46:	e8 81       	ld	r30, Y
    2a48:	f9 81       	ldd	r31, Y+1	; 0x01
    2a4a:	86 81       	ldd	r24, Z+6	; 0x06
    2a4c:	97 81       	ldd	r25, Z+7	; 0x07
    2a4e:	99 83       	std	Y+1, r25	; 0x01
    2a50:	88 83       	st	Y, r24
			
			voice_queue[voice_queue_tail++] = voice_ch;
    2a52:	e0 91 02 07 	lds	r30, 0x0702
    2a56:	81 e0       	ldi	r24, 0x01	; 1
    2a58:	8e 0f       	add	r24, r30
    2a5a:	80 93 02 07 	sts	0x0702, r24
    2a5e:	f0 e0       	ldi	r31, 0x00	; 0
    2a60:	e1 52       	subi	r30, 0x21	; 33
    2a62:	f9 4f       	sbci	r31, 0xF9	; 249
    2a64:	10 83       	st	Z, r17
			if(voice_queue_tail == MAX_VOICE_NUM){
    2a66:	80 31       	cpi	r24, 0x10	; 16
    2a68:	11 f4       	brne	.+4      	; 0x2a6e <hold_off+0x58>
				voice_queue_tail = 0;
    2a6a:	10 92 02 07 	sts	0x0702, r1
			}
			active_voice_num--;		
    2a6e:	80 91 f0 06 	lds	r24, 0x06F0
    2a72:	90 91 f1 06 	lds	r25, 0x06F1
    2a76:	01 97       	sbiw	r24, 0x01	; 1
    2a78:	90 93 f1 06 	sts	0x06F1, r25
    2a7c:	80 93 f0 06 	sts	0x06F0, r24
    2a80:	02 c0       	rjmp	.+4      	; 0x2a86 <hold_off+0x70>
			
			
		}else{
			p = &( (*p)->next);
    2a82:	ef 01       	movw	r28, r30
    2a84:	26 96       	adiw	r28, 0x06	; 6
	
	midi_ch[ch].hold = FALSE;
	
	p = &(midi_ch[ch].voice_list);
	
	while( *p != NULL){
    2a86:	e8 81       	ld	r30, Y
    2a88:	f9 81       	ldd	r31, Y+1	; 0x01
    2a8a:	30 97       	sbiw	r30, 0x00	; 0
    2a8c:	a9 f6       	brne	.-86     	; 0x2a38 <hold_off+0x22>
		}else{
			p = &( (*p)->next);
		}
	}
	
}
    2a8e:	df 91       	pop	r29
    2a90:	cf 91       	pop	r28
    2a92:	1f 91       	pop	r17
    2a94:	08 95       	ret

00002a96 <note_off_func>:
	
}



void note_off_func(int ch,char i){
    2a96:	1f 93       	push	r17
    2a98:	cf 93       	push	r28
    2a9a:	df 93       	push	r29
    2a9c:	ec 01       	movw	r28, r24
    2a9e:	16 2f       	mov	r17, r22
		int f,adr;

		if(play_mode == 1){
    2aa0:	80 91 0f 01 	lds	r24, 0x010F
    2aa4:	81 30       	cpi	r24, 0x01	; 1
    2aa6:	39 f4       	brne	.+14     	; 0x2ab6 <note_off_func+0x20>
			f = return_voice(ch,i);
    2aa8:	8c 2f       	mov	r24, r28
    2aaa:	21 de       	rcall	.-958    	; 0x26ee <return_voice>
			if( f!= NOT_GET){
    2aac:	8f 3f       	cpi	r24, 0xFF	; 255
    2aae:	91 05       	cpc	r25, r1
    2ab0:	d9 f0       	breq	.+54     	; 0x2ae8 <note_off_func+0x52>
				note_off(f);
    2ab2:	97 df       	rcall	.-210    	; 0x29e2 <note_off>
    2ab4:	19 c0       	rjmp	.+50     	; 0x2ae8 <note_off_func+0x52>
			}
			
		}else if(play_mode == 3){
    2ab6:	83 30       	cpi	r24, 0x03	; 3
    2ab8:	79 f4       	brne	.+30     	; 0x2ad8 <note_off_func+0x42>
			f = return_voice(ch,i);
    2aba:	8c 2f       	mov	r24, r28
    2abc:	18 de       	rcall	.-976    	; 0x26ee <return_voice>
			if(f!=NOT_GET){
    2abe:	8f 3f       	cpi	r24, 0xFF	; 255
    2ac0:	91 05       	cpc	r25, r1
    2ac2:	09 f0       	breq	.+2      	; 0x2ac6 <note_off_func+0x30>
				note_off(f);
    2ac4:	8e df       	rcall	.-228    	; 0x29e2 <note_off>
			}
			f = return_voice(ch+8,i);
    2ac6:	61 2f       	mov	r22, r17
    2ac8:	8c 2f       	mov	r24, r28
    2aca:	88 5f       	subi	r24, 0xF8	; 248
    2acc:	10 de       	rcall	.-992    	; 0x26ee <return_voice>
			if(f!=NOT_GET){
    2ace:	8f 3f       	cpi	r24, 0xFF	; 255
    2ad0:	91 05       	cpc	r25, r1
    2ad2:	51 f0       	breq	.+20     	; 0x2ae8 <note_off_func+0x52>
				note_off(f);
    2ad4:	86 df       	rcall	.-244    	; 0x29e2 <note_off>
    2ad6:	08 c0       	rjmp	.+16     	; 0x2ae8 <note_off_func+0x52>
			}

		}else{
			if(channel_noteno[ch] == i){
    2ad8:	fe 01       	movw	r30, r28
    2ada:	ee 50       	subi	r30, 0x0E	; 14
    2adc:	f9 4f       	sbci	r31, 0xF9	; 249
    2ade:	80 81       	ld	r24, Z
    2ae0:	86 13       	cpse	r24, r22
    2ae2:	02 c0       	rjmp	.+4      	; 0x2ae8 <note_off_func+0x52>
				note_off(ch);
    2ae4:	8c 2f       	mov	r24, r28
    2ae6:	7d df       	rcall	.-262    	; 0x29e2 <note_off>
			}
		}
	
}
    2ae8:	df 91       	pop	r29
    2aea:	cf 91       	pop	r28
    2aec:	1f 91       	pop	r17
    2aee:	08 95       	ret

00002af0 <change_modulation>:



void change_modulation(uint8_t ch,uint8_t mod){
    2af0:	0f 93       	push	r16
    2af2:	1f 93       	push	r17
    2af4:	cf 93       	push	r28
    2af6:	df 93       	push	r29
	struct VoiceChannel *p;
	uint8_t voice_ch;
	
	midi_ch[ch].reg_17 = mod;
    2af8:	20 e1       	ldi	r18, 0x10	; 16
    2afa:	82 9f       	mul	r24, r18
    2afc:	c0 01       	movw	r24, r0
    2afe:	11 24       	eor	r1, r1
    2b00:	fc 01       	movw	r30, r24
    2b02:	e1 5a       	subi	r30, 0xA1	; 161
    2b04:	fa 4f       	sbci	r31, 0xFA	; 250
    2b06:	63 87       	std	Z+11, r22	; 0x0b
	p = midi_ch[ch].voice_list;
    2b08:	c6 85       	ldd	r28, Z+14	; 0x0e
    2b0a:	d7 85       	ldd	r29, Z+15	; 0x0f
	while(p != NULL){
    2b0c:	20 97       	sbiw	r28, 0x00	; 0
    2b0e:	91 f0       	breq	.+36     	; 0x2b34 <change_modulation+0x44>
		if_s_write(0x0b,p->voice_ch);
		if_s_write(0x11,mod);
    2b10:	06 2f       	mov	r16, r22
    2b12:	10 e0       	ldi	r17, 0x00	; 0
	uint8_t voice_ch;
	
	midi_ch[ch].reg_17 = mod;
	p = midi_ch[ch].voice_list;
	while(p != NULL){
		if_s_write(0x0b,p->voice_ch);
    2b14:	68 81       	ld	r22, Y
    2b16:	70 e0       	ldi	r23, 0x00	; 0
    2b18:	8b e0       	ldi	r24, 0x0B	; 11
    2b1a:	90 e0       	ldi	r25, 0x00	; 0
    2b1c:	0e 94 a1 0c 	call	0x1942	; 0x1942 <if_s_write>
		if_s_write(0x11,mod);
    2b20:	b8 01       	movw	r22, r16
    2b22:	81 e1       	ldi	r24, 0x11	; 17
    2b24:	90 e0       	ldi	r25, 0x00	; 0
    2b26:	0e 94 a1 0c 	call	0x1942	; 0x1942 <if_s_write>
		p = p->next;
    2b2a:	0e 80       	ldd	r0, Y+6	; 0x06
    2b2c:	df 81       	ldd	r29, Y+7	; 0x07
    2b2e:	c0 2d       	mov	r28, r0
	struct VoiceChannel *p;
	uint8_t voice_ch;
	
	midi_ch[ch].reg_17 = mod;
	p = midi_ch[ch].voice_list;
	while(p != NULL){
    2b30:	20 97       	sbiw	r28, 0x00	; 0
    2b32:	81 f7       	brne	.-32     	; 0x2b14 <change_modulation+0x24>
		if_s_write(0x0b,p->voice_ch);
		if_s_write(0x11,mod);
		p = p->next;
	}
}
    2b34:	df 91       	pop	r29
    2b36:	cf 91       	pop	r28
    2b38:	1f 91       	pop	r17
    2b3a:	0f 91       	pop	r16
    2b3c:	08 95       	ret

00002b3e <change_pitchbend>:

void change_pitchbend(uint8_t ch,uint8_t i,uint8_t j){
    2b3e:	ef 92       	push	r14
    2b40:	ff 92       	push	r15
    2b42:	0f 93       	push	r16
    2b44:	1f 93       	push	r17
    2b46:	cf 93       	push	r28
    2b48:	df 93       	push	r29
	int f;
	int hi,lo;
	struct VoiceChannel *p;
	
	f = (i <<7) | j;
    2b4a:	50 e8       	ldi	r21, 0x80	; 128
    2b4c:	65 9f       	mul	r22, r21
    2b4e:	90 01       	movw	r18, r0
    2b50:	11 24       	eor	r1, r1
	f = calc_exp(f,midi_ch[ch].pitch_sens);
    2b52:	50 e1       	ldi	r21, 0x10	; 16
    2b54:	85 9f       	mul	r24, r21
    2b56:	c0 01       	movw	r24, r0
    2b58:	11 24       	eor	r1, r1
    2b5a:	ec 01       	movw	r28, r24
    2b5c:	c1 5a       	subi	r28, 0xA1	; 161
    2b5e:	da 4f       	sbci	r29, 0xFA	; 250
    2b60:	68 85       	ldd	r22, Y+8	; 0x08
    2b62:	70 e0       	ldi	r23, 0x00	; 0
    2b64:	c9 01       	movw	r24, r18
    2b66:	84 2b       	or	r24, r20
    2b68:	0e 94 6c 0b 	call	0x16d8	; 0x16d8 <calc_exp>
	hi = (f>>11) & 0x001f;
    2b6c:	29 2f       	mov	r18, r25
    2b6e:	26 95       	lsr	r18
    2b70:	26 95       	lsr	r18
    2b72:	26 95       	lsr	r18
    2b74:	e2 2e       	mov	r14, r18
    2b76:	f1 2c       	mov	r15, r1
	lo = (f >>4) & 0x007f;
    2b78:	8c 01       	movw	r16, r24
    2b7a:	15 95       	asr	r17
    2b7c:	07 95       	ror	r16
    2b7e:	15 95       	asr	r17
    2b80:	07 95       	ror	r16
    2b82:	15 95       	asr	r17
    2b84:	07 95       	ror	r16
    2b86:	15 95       	asr	r17
    2b88:	07 95       	ror	r16
    2b8a:	0f 77       	andi	r16, 0x7F	; 127
    2b8c:	11 27       	eor	r17, r17
	midi_ch[ch].reg_18 = hi;
    2b8e:	2c 87       	std	Y+12, r18	; 0x0c
	midi_ch[ch].reg_19 = lo;
    2b90:	0d 87       	std	Y+13, r16	; 0x0d
	
	p = midi_ch[ch].voice_list;	
    2b92:	0e 84       	ldd	r0, Y+14	; 0x0e
    2b94:	df 85       	ldd	r29, Y+15	; 0x0f
    2b96:	c0 2d       	mov	r28, r0
	while(p != NULL){
    2b98:	20 97       	sbiw	r28, 0x00	; 0
    2b9a:	b9 f0       	breq	.+46     	; 0x2bca <change_pitchbend+0x8c>
		if_s_write(0x0b,p->voice_ch);
    2b9c:	88 81       	ld	r24, Y
    2b9e:	68 2f       	mov	r22, r24
    2ba0:	70 e0       	ldi	r23, 0x00	; 0
    2ba2:	8b e0       	ldi	r24, 0x0B	; 11
    2ba4:	90 e0       	ldi	r25, 0x00	; 0
    2ba6:	0e 94 a1 0c 	call	0x1942	; 0x1942 <if_s_write>
		if_s_write(0x12,hi);
    2baa:	6e 2d       	mov	r22, r14
    2bac:	7f 2d       	mov	r23, r15
    2bae:	82 e1       	ldi	r24, 0x12	; 18
    2bb0:	90 e0       	ldi	r25, 0x00	; 0
    2bb2:	0e 94 a1 0c 	call	0x1942	; 0x1942 <if_s_write>
		if_s_write(0x13,lo);
    2bb6:	b8 01       	movw	r22, r16
    2bb8:	83 e1       	ldi	r24, 0x13	; 19
    2bba:	90 e0       	ldi	r25, 0x00	; 0
    2bbc:	0e 94 a1 0c 	call	0x1942	; 0x1942 <if_s_write>
		p = p->next;
    2bc0:	0e 80       	ldd	r0, Y+6	; 0x06
    2bc2:	df 81       	ldd	r29, Y+7	; 0x07
    2bc4:	c0 2d       	mov	r28, r0
	lo = (f >>4) & 0x007f;
	midi_ch[ch].reg_18 = hi;
	midi_ch[ch].reg_19 = lo;
	
	p = midi_ch[ch].voice_list;	
	while(p != NULL){
    2bc6:	20 97       	sbiw	r28, 0x00	; 0
    2bc8:	49 f7       	brne	.-46     	; 0x2b9c <change_pitchbend+0x5e>
		if_s_write(0x0b,p->voice_ch);
		if_s_write(0x12,hi);
		if_s_write(0x13,lo);
		p = p->next;
	}
}
    2bca:	df 91       	pop	r29
    2bcc:	cf 91       	pop	r28
    2bce:	1f 91       	pop	r17
    2bd0:	0f 91       	pop	r16
    2bd2:	ff 90       	pop	r15
    2bd4:	ef 90       	pop	r14
    2bd6:	08 95       	ret

00002bd8 <change_part_level>:

void change_part_level(uint8_t ch, uint8_t val){
    2bd8:	0f 93       	push	r16
    2bda:	1f 93       	push	r17
    2bdc:	cf 93       	push	r28
    2bde:	df 93       	push	r29
	struct VoiceChannel *p;
	
	midi_ch[ch].reg_16 = val;
    2be0:	20 e1       	ldi	r18, 0x10	; 16
    2be2:	82 9f       	mul	r24, r18
    2be4:	c0 01       	movw	r24, r0
    2be6:	11 24       	eor	r1, r1
    2be8:	fc 01       	movw	r30, r24
    2bea:	e1 5a       	subi	r30, 0xA1	; 161
    2bec:	fa 4f       	sbci	r31, 0xFA	; 250
    2bee:	62 87       	std	Z+10, r22	; 0x0a
	p = midi_ch[ch].voice_list;
    2bf0:	c6 85       	ldd	r28, Z+14	; 0x0e
    2bf2:	d7 85       	ldd	r29, Z+15	; 0x0f
	while(p != NULL){
    2bf4:	20 97       	sbiw	r28, 0x00	; 0
    2bf6:	91 f0       	breq	.+36     	; 0x2c1c <change_part_level+0x44>
		if_s_write(0x0b,p->voice_ch);
		if_s_write(0x10,val);
    2bf8:	06 2f       	mov	r16, r22
    2bfa:	10 e0       	ldi	r17, 0x00	; 0
	struct VoiceChannel *p;
	
	midi_ch[ch].reg_16 = val;
	p = midi_ch[ch].voice_list;
	while(p != NULL){
		if_s_write(0x0b,p->voice_ch);
    2bfc:	68 81       	ld	r22, Y
    2bfe:	70 e0       	ldi	r23, 0x00	; 0
    2c00:	8b e0       	ldi	r24, 0x0B	; 11
    2c02:	90 e0       	ldi	r25, 0x00	; 0
    2c04:	0e 94 a1 0c 	call	0x1942	; 0x1942 <if_s_write>
		if_s_write(0x10,val);
    2c08:	b8 01       	movw	r22, r16
    2c0a:	80 e1       	ldi	r24, 0x10	; 16
    2c0c:	90 e0       	ldi	r25, 0x00	; 0
    2c0e:	0e 94 a1 0c 	call	0x1942	; 0x1942 <if_s_write>
		p = p->next;
    2c12:	0e 80       	ldd	r0, Y+6	; 0x06
    2c14:	df 81       	ldd	r29, Y+7	; 0x07
    2c16:	c0 2d       	mov	r28, r0
void change_part_level(uint8_t ch, uint8_t val){
	struct VoiceChannel *p;
	
	midi_ch[ch].reg_16 = val;
	p = midi_ch[ch].voice_list;
	while(p != NULL){
    2c18:	20 97       	sbiw	r28, 0x00	; 0
    2c1a:	81 f7       	brne	.-32     	; 0x2bfc <change_part_level+0x24>
		if_s_write(0x0b,p->voice_ch);
		if_s_write(0x10,val);
		p = p->next;
	}
}
    2c1c:	df 91       	pop	r29
    2c1e:	cf 91       	pop	r28
    2c20:	1f 91       	pop	r17
    2c22:	0f 91       	pop	r16
    2c24:	08 95       	ret

00002c26 <change_expression>:

void change_expression(uint8_t ch, uint8_t val){
    2c26:	0f 93       	push	r16
    2c28:	1f 93       	push	r17
    2c2a:	cf 93       	push	r28
    2c2c:	df 93       	push	r29
	struct VoiceChannel *p;
	
	midi_ch[ch].reg_16 = val;
    2c2e:	20 e1       	ldi	r18, 0x10	; 16
    2c30:	82 9f       	mul	r24, r18
    2c32:	c0 01       	movw	r24, r0
    2c34:	11 24       	eor	r1, r1
    2c36:	fc 01       	movw	r30, r24
    2c38:	e1 5a       	subi	r30, 0xA1	; 161
    2c3a:	fa 4f       	sbci	r31, 0xFA	; 250
    2c3c:	62 87       	std	Z+10, r22	; 0x0a
	p = midi_ch[ch].voice_list;
    2c3e:	c6 85       	ldd	r28, Z+14	; 0x0e
    2c40:	d7 85       	ldd	r29, Z+15	; 0x0f
	while(p != NULL){
    2c42:	20 97       	sbiw	r28, 0x00	; 0
    2c44:	91 f0       	breq	.+36     	; 0x2c6a <change_expression+0x44>
		if_s_write(0x0b,p->voice_ch);
		if_s_write(0x10,val);
    2c46:	06 2f       	mov	r16, r22
    2c48:	10 e0       	ldi	r17, 0x00	; 0
	struct VoiceChannel *p;
	
	midi_ch[ch].reg_16 = val;
	p = midi_ch[ch].voice_list;
	while(p != NULL){
		if_s_write(0x0b,p->voice_ch);
    2c4a:	68 81       	ld	r22, Y
    2c4c:	70 e0       	ldi	r23, 0x00	; 0
    2c4e:	8b e0       	ldi	r24, 0x0B	; 11
    2c50:	90 e0       	ldi	r25, 0x00	; 0
    2c52:	0e 94 a1 0c 	call	0x1942	; 0x1942 <if_s_write>
		if_s_write(0x10,val);
    2c56:	b8 01       	movw	r22, r16
    2c58:	80 e1       	ldi	r24, 0x10	; 16
    2c5a:	90 e0       	ldi	r25, 0x00	; 0
    2c5c:	0e 94 a1 0c 	call	0x1942	; 0x1942 <if_s_write>
		p = p->next;
    2c60:	0e 80       	ldd	r0, Y+6	; 0x06
    2c62:	df 81       	ldd	r29, Y+7	; 0x07
    2c64:	c0 2d       	mov	r28, r0
void change_expression(uint8_t ch, uint8_t val){
	struct VoiceChannel *p;
	
	midi_ch[ch].reg_16 = val;
	p = midi_ch[ch].voice_list;
	while(p != NULL){
    2c66:	20 97       	sbiw	r28, 0x00	; 0
    2c68:	81 f7       	brne	.-32     	; 0x2c4a <change_expression+0x24>
		if_s_write(0x0b,p->voice_ch);
		if_s_write(0x10,val);
		p = p->next;
	}
}
    2c6a:	df 91       	pop	r29
    2c6c:	cf 91       	pop	r28
    2c6e:	1f 91       	pop	r17
    2c70:	0f 91       	pop	r16
    2c72:	08 95       	ret

00002c74 <pitch_wheel_change>:

/* 単音用PitchBend */

	

void pitch_wheel_change(char ch,char i ,char j){
    2c74:	0f 93       	push	r16
    2c76:	1f 93       	push	r17
    2c78:	cf 93       	push	r28
    2c7a:	df 93       	push	r29
	int f,d;

	
	f = (i << 7) | j;
    2c7c:	90 e8       	ldi	r25, 0x80	; 128
    2c7e:	69 9f       	mul	r22, r25
    2c80:	90 01       	movw	r18, r0
    2c82:	11 24       	eor	r1, r1

	f = calc_exp(f,midi_ch[ch].pitch_sens);
    2c84:	08 2f       	mov	r16, r24
    2c86:	10 e0       	ldi	r17, 0x00	; 0
    2c88:	f8 01       	movw	r30, r16
    2c8a:	e2 95       	swap	r30
    2c8c:	f2 95       	swap	r31
    2c8e:	f0 7f       	andi	r31, 0xF0	; 240
    2c90:	fe 27       	eor	r31, r30
    2c92:	e0 7f       	andi	r30, 0xF0	; 240
    2c94:	fe 27       	eor	r31, r30
    2c96:	e1 5a       	subi	r30, 0xA1	; 161
    2c98:	fa 4f       	sbci	r31, 0xFA	; 250
    2c9a:	60 85       	ldd	r22, Z+8	; 0x08
    2c9c:	70 e0       	ldi	r23, 0x00	; 0
    2c9e:	c9 01       	movw	r24, r18
    2ca0:	84 2b       	or	r24, r20
    2ca2:	0e 94 6c 0b 	call	0x16d8	; 0x16d8 <calc_exp>
    2ca6:	ec 01       	movw	r28, r24
	d = (f >> 11) & 0x001f;



	
	if_s_write(0x0B,ch);
    2ca8:	b8 01       	movw	r22, r16
    2caa:	8b e0       	ldi	r24, 0x0B	; 11
    2cac:	90 e0       	ldi	r25, 0x00	; 0
    2cae:	0e 94 a1 0c 	call	0x1942	; 0x1942 <if_s_write>

	f = calc_exp(f,midi_ch[ch].pitch_sens);

	//f = calc_exp(f,11);	

	d = (f >> 11) & 0x001f;
    2cb2:	6d 2f       	mov	r22, r29
    2cb4:	66 95       	lsr	r22
    2cb6:	66 95       	lsr	r22
    2cb8:	66 95       	lsr	r22



	
	if_s_write(0x0B,ch);
	if_s_write(0x12,d);
    2cba:	70 e0       	ldi	r23, 0x00	; 0
    2cbc:	82 e1       	ldi	r24, 0x12	; 18
    2cbe:	90 e0       	ldi	r25, 0x00	; 0
    2cc0:	0e 94 a1 0c 	call	0x1942	; 0x1942 <if_s_write>
		
	d = (f >> 4) & 0x007f;
    2cc4:	be 01       	movw	r22, r28
    2cc6:	75 95       	asr	r23
    2cc8:	67 95       	ror	r22
    2cca:	75 95       	asr	r23
    2ccc:	67 95       	ror	r22
    2cce:	75 95       	asr	r23
    2cd0:	67 95       	ror	r22
    2cd2:	75 95       	asr	r23
    2cd4:	67 95       	ror	r22
    2cd6:	6f 77       	andi	r22, 0x7F	; 127
    2cd8:	77 27       	eor	r23, r23
	if_s_write(0x13,d);
    2cda:	83 e1       	ldi	r24, 0x13	; 19
    2cdc:	90 e0       	ldi	r25, 0x00	; 0
    2cde:	0e 94 a1 0c 	call	0x1942	; 0x1942 <if_s_write>

	
}	
    2ce2:	df 91       	pop	r29
    2ce4:	cf 91       	pop	r28
    2ce6:	1f 91       	pop	r17
    2ce8:	0f 91       	pop	r16
    2cea:	08 95       	ret

00002cec <MIDI_Device_ConfigureEndpoints>:
#define  __INCLUDE_FROM_MIDI_DRIVER
#define  __INCLUDE_FROM_MIDI_DEVICE_C
#include "MIDIClassDevice.h"

bool MIDI_Device_ConfigureEndpoints(USB_ClassInfo_MIDI_Device_t* const MIDIInterfaceInfo)
{
    2cec:	cf 93       	push	r28
    2cee:	df 93       	push	r29
    2cf0:	ec 01       	movw	r28, r24
	memset(&MIDIInterfaceInfo->State, 0x00, sizeof(MIDIInterfaceInfo->State));
    2cf2:	1b 86       	std	Y+11, r1	; 0x0b

	MIDIInterfaceInfo->Config.DataINEndpoint.Type  = EP_TYPE_BULK;
    2cf4:	82 e0       	ldi	r24, 0x02	; 2
    2cf6:	8c 83       	std	Y+4, r24	; 0x04
	MIDIInterfaceInfo->Config.DataOUTEndpoint.Type = EP_TYPE_BULK;
    2cf8:	89 87       	std	Y+9, r24	; 0x09

	if (!(Endpoint_ConfigureEndpointTable(&MIDIInterfaceInfo->Config.DataINEndpoint, 1)))
    2cfa:	61 e0       	ldi	r22, 0x01	; 1
    2cfc:	ce 01       	movw	r24, r28
    2cfe:	01 96       	adiw	r24, 0x01	; 1
    2d00:	a7 d2       	rcall	.+1358   	; 0x3250 <Endpoint_ConfigureEndpointTable>
    2d02:	88 23       	and	r24, r24
    2d04:	21 f0       	breq	.+8      	; 0x2d0e <MIDI_Device_ConfigureEndpoints+0x22>
	  return false;

	if (!(Endpoint_ConfigureEndpointTable(&MIDIInterfaceInfo->Config.DataOUTEndpoint, 1)))
    2d06:	61 e0       	ldi	r22, 0x01	; 1
    2d08:	ce 01       	movw	r24, r28
    2d0a:	06 96       	adiw	r24, 0x06	; 6
    2d0c:	a1 d2       	rcall	.+1346   	; 0x3250 <Endpoint_ConfigureEndpointTable>
	  return false;

	return true;
}
    2d0e:	df 91       	pop	r29
    2d10:	cf 91       	pop	r28
    2d12:	08 95       	ret

00002d14 <MIDI_Device_SendEventPacket>:
	#endif
}

uint8_t MIDI_Device_SendEventPacket(USB_ClassInfo_MIDI_Device_t* const MIDIInterfaceInfo,
                                    const MIDI_EventPacket_t* const Event)
{
    2d14:	9b 01       	movw	r18, r22
	if (USB_DeviceState != DEVICE_STATE_Configured)
    2d16:	40 91 07 07 	lds	r20, 0x0707
    2d1a:	44 30       	cpi	r20, 0x04	; 4
    2d1c:	c1 f4       	brne	.+48     	; 0x2d4e <MIDI_Device_SendEventPacket+0x3a>
			 */
			static inline void Endpoint_SelectEndpoint(const uint8_t Address) ATTR_ALWAYS_INLINE;
			static inline void Endpoint_SelectEndpoint(const uint8_t Address)
			{
				#if !defined(CONTROL_ONLY_DEVICE)
					UENUM = (Address & ENDPOINT_EPNUM_MASK);
    2d1e:	fc 01       	movw	r30, r24
    2d20:	81 81       	ldd	r24, Z+1	; 0x01
    2d22:	8f 70       	andi	r24, 0x0F	; 15
    2d24:	80 93 e9 00 	sts	0x00E9, r24

	uint8_t ErrorCode;

	Endpoint_SelectEndpoint(MIDIInterfaceInfo->Config.DataINEndpoint.Address);

	if ((ErrorCode = Endpoint_Write_Stream_LE(Event, sizeof(MIDI_EventPacket_t), NULL)) != ENDPOINT_RWSTREAM_NoError)
    2d28:	40 e0       	ldi	r20, 0x00	; 0
    2d2a:	50 e0       	ldi	r21, 0x00	; 0
    2d2c:	64 e0       	ldi	r22, 0x04	; 4
    2d2e:	70 e0       	ldi	r23, 0x00	; 0
    2d30:	c9 01       	movw	r24, r18
    2d32:	66 d0       	rcall	.+204    	; 0x2e00 <Endpoint_Write_Stream_LE>
    2d34:	81 11       	cpse	r24, r1
    2d36:	0e c0       	rjmp	.+28     	; 0x2d54 <MIDI_Device_SendEventPacket+0x40>
			 *          on its direction.
			 */
			static inline bool Endpoint_IsReadWriteAllowed(void) ATTR_WARN_UNUSED_RESULT ATTR_ALWAYS_INLINE;
			static inline bool Endpoint_IsReadWriteAllowed(void)
			{
				return ((UEINTX & (1 << RWAL)) ? true : false);
    2d38:	80 91 e8 00 	lds	r24, 0x00E8
	  return ErrorCode;

	if (!(Endpoint_IsReadWriteAllowed()))
    2d3c:	85 fd       	sbrc	r24, 5
    2d3e:	09 c0       	rjmp	.+18     	; 0x2d52 <MIDI_Device_SendEventPacket+0x3e>
			 */
			static inline void Endpoint_ClearIN(void) ATTR_ALWAYS_INLINE;
			static inline void Endpoint_ClearIN(void)
			{
				#if !defined(CONTROL_ONLY_DEVICE)
					UEINTX &= ~((1 << TXINI) | (1 << FIFOCON));
    2d40:	e8 ee       	ldi	r30, 0xE8	; 232
    2d42:	f0 e0       	ldi	r31, 0x00	; 0
    2d44:	80 81       	ld	r24, Z
    2d46:	8e 77       	andi	r24, 0x7E	; 126
    2d48:	80 83       	st	Z, r24
	  Endpoint_ClearIN();

	return ENDPOINT_RWSTREAM_NoError;
    2d4a:	80 e0       	ldi	r24, 0x00	; 0
    2d4c:	08 95       	ret

uint8_t MIDI_Device_SendEventPacket(USB_ClassInfo_MIDI_Device_t* const MIDIInterfaceInfo,
                                    const MIDI_EventPacket_t* const Event)
{
	if (USB_DeviceState != DEVICE_STATE_Configured)
	  return ENDPOINT_RWSTREAM_DeviceDisconnected;
    2d4e:	82 e0       	ldi	r24, 0x02	; 2
    2d50:	08 95       	ret
	  return ErrorCode;

	if (!(Endpoint_IsReadWriteAllowed()))
	  Endpoint_ClearIN();

	return ENDPOINT_RWSTREAM_NoError;
    2d52:	80 e0       	ldi	r24, 0x00	; 0
}
    2d54:	08 95       	ret

00002d56 <MIDI_Device_Flush>:

uint8_t MIDI_Device_Flush(USB_ClassInfo_MIDI_Device_t* const MIDIInterfaceInfo)
{
	if (USB_DeviceState != DEVICE_STATE_Configured)
    2d56:	20 91 07 07 	lds	r18, 0x0707
    2d5a:	24 30       	cpi	r18, 0x04	; 4
    2d5c:	a1 f4       	brne	.+40     	; 0x2d86 <MIDI_Device_Flush+0x30>
			 */
			static inline void Endpoint_SelectEndpoint(const uint8_t Address) ATTR_ALWAYS_INLINE;
			static inline void Endpoint_SelectEndpoint(const uint8_t Address)
			{
				#if !defined(CONTROL_ONLY_DEVICE)
					UENUM = (Address & ENDPOINT_EPNUM_MASK);
    2d5e:	fc 01       	movw	r30, r24
    2d60:	81 81       	ldd	r24, Z+1	; 0x01
    2d62:	8f 70       	andi	r24, 0x0F	; 15
    2d64:	80 93 e9 00 	sts	0x00E9, r24
			static inline uint16_t Endpoint_BytesInEndpoint(void)
			{
				#if (defined(USB_SERIES_6_AVR) || defined(USB_SERIES_7_AVR))
					return UEBCX;
				#elif defined(USB_SERIES_4_AVR)
					return (((uint16_t)UEBCHX << 8) | UEBCLX);
    2d68:	20 91 f3 00 	lds	r18, 0x00F3
    2d6c:	80 91 f2 00 	lds	r24, 0x00F2
    2d70:	90 e0       	ldi	r25, 0x00	; 0
    2d72:	92 2b       	or	r25, r18

	uint8_t ErrorCode;

	Endpoint_SelectEndpoint(MIDIInterfaceInfo->Config.DataINEndpoint.Address);

	if (Endpoint_BytesInEndpoint())
    2d74:	89 2b       	or	r24, r25
    2d76:	49 f0       	breq	.+18     	; 0x2d8a <MIDI_Device_Flush+0x34>
			 */
			static inline void Endpoint_ClearIN(void) ATTR_ALWAYS_INLINE;
			static inline void Endpoint_ClearIN(void)
			{
				#if !defined(CONTROL_ONLY_DEVICE)
					UEINTX &= ~((1 << TXINI) | (1 << FIFOCON));
    2d78:	e8 ee       	ldi	r30, 0xE8	; 232
    2d7a:	f0 e0       	ldi	r31, 0x00	; 0
    2d7c:	80 81       	ld	r24, Z
    2d7e:	8e 77       	andi	r24, 0x7E	; 126
    2d80:	80 83       	st	Z, r24
	{
		Endpoint_ClearIN();

		if ((ErrorCode = Endpoint_WaitUntilReady()) != ENDPOINT_READYWAIT_NoError)
    2d82:	e7 c2       	rjmp	.+1486   	; 0x3352 <Endpoint_WaitUntilReady>
    2d84:	08 95       	ret
}

uint8_t MIDI_Device_Flush(USB_ClassInfo_MIDI_Device_t* const MIDIInterfaceInfo)
{
	if (USB_DeviceState != DEVICE_STATE_Configured)
	  return ENDPOINT_RWSTREAM_DeviceDisconnected;
    2d86:	82 e0       	ldi	r24, 0x02	; 2
    2d88:	08 95       	ret

		if ((ErrorCode = Endpoint_WaitUntilReady()) != ENDPOINT_READYWAIT_NoError)
		  return ErrorCode;
	}

	return ENDPOINT_READYWAIT_NoError;
    2d8a:	80 e0       	ldi	r24, 0x00	; 0
}
    2d8c:	08 95       	ret

00002d8e <MIDI_Device_USBTask>:
	return true;
}

void MIDI_Device_USBTask(USB_ClassInfo_MIDI_Device_t* const MIDIInterfaceInfo)
{
	if (USB_DeviceState != DEVICE_STATE_Configured)
    2d8e:	20 91 07 07 	lds	r18, 0x0707
    2d92:	24 30       	cpi	r18, 0x04	; 4
    2d94:	49 f4       	brne	.+18     	; 0x2da8 <MIDI_Device_USBTask+0x1a>
			 */
			static inline void Endpoint_SelectEndpoint(const uint8_t Address) ATTR_ALWAYS_INLINE;
			static inline void Endpoint_SelectEndpoint(const uint8_t Address)
			{
				#if !defined(CONTROL_ONLY_DEVICE)
					UENUM = (Address & ENDPOINT_EPNUM_MASK);
    2d96:	fc 01       	movw	r30, r24
    2d98:	21 81       	ldd	r18, Z+1	; 0x01
    2d9a:	2f 70       	andi	r18, 0x0F	; 15
    2d9c:	20 93 e9 00 	sts	0x00E9, r18
			 *  \return Boolean \c true if the current endpoint is ready for an IN packet, \c false otherwise.
			 */
			static inline bool Endpoint_IsINReady(void) ATTR_WARN_UNUSED_RESULT ATTR_ALWAYS_INLINE;
			static inline bool Endpoint_IsINReady(void)
			{
				return ((UEINTX & (1 << TXINI)) ? true : false);
    2da0:	20 91 e8 00 	lds	r18, 0x00E8
	  return;

	#if !defined(NO_CLASS_DRIVER_AUTOFLUSH)
	Endpoint_SelectEndpoint(MIDIInterfaceInfo->Config.DataINEndpoint.Address);

	if (Endpoint_IsINReady())
    2da4:	20 fd       	sbrc	r18, 0
	  MIDI_Device_Flush(MIDIInterfaceInfo);
    2da6:	d7 cf       	rjmp	.-82     	; 0x2d56 <MIDI_Device_Flush>
    2da8:	08 95       	ret

00002daa <MIDI_Device_ReceiveEventPacket>:
	return ENDPOINT_READYWAIT_NoError;
}

bool MIDI_Device_ReceiveEventPacket(USB_ClassInfo_MIDI_Device_t* const MIDIInterfaceInfo,
                                    MIDI_EventPacket_t* const Event)
{
    2daa:	9b 01       	movw	r18, r22
	if (USB_DeviceState != DEVICE_STATE_Configured)
    2dac:	40 91 07 07 	lds	r20, 0x0707
    2db0:	44 30       	cpi	r20, 0x04	; 4
    2db2:	f1 f4       	brne	.+60     	; 0x2df0 <MIDI_Device_ReceiveEventPacket+0x46>
			 */
			static inline void Endpoint_SelectEndpoint(const uint8_t Address) ATTR_ALWAYS_INLINE;
			static inline void Endpoint_SelectEndpoint(const uint8_t Address)
			{
				#if !defined(CONTROL_ONLY_DEVICE)
					UENUM = (Address & ENDPOINT_EPNUM_MASK);
    2db4:	fc 01       	movw	r30, r24
    2db6:	86 81       	ldd	r24, Z+6	; 0x06
    2db8:	8f 70       	andi	r24, 0x0F	; 15
    2dba:	80 93 e9 00 	sts	0x00E9, r24
			 *  \return Boolean \c true if current endpoint is has received an OUT packet, \c false otherwise.
			 */
			static inline bool Endpoint_IsOUTReceived(void) ATTR_WARN_UNUSED_RESULT ATTR_ALWAYS_INLINE;
			static inline bool Endpoint_IsOUTReceived(void)
			{
				return ((UEINTX & (1 << RXOUTI)) ? true : false);
    2dbe:	80 91 e8 00 	lds	r24, 0x00E8
	  return false;

	Endpoint_SelectEndpoint(MIDIInterfaceInfo->Config.DataOUTEndpoint.Address);

	if (!(Endpoint_IsOUTReceived()))
    2dc2:	82 ff       	sbrs	r24, 2
    2dc4:	17 c0       	rjmp	.+46     	; 0x2df4 <MIDI_Device_ReceiveEventPacket+0x4a>
			 *          on its direction.
			 */
			static inline bool Endpoint_IsReadWriteAllowed(void) ATTR_WARN_UNUSED_RESULT ATTR_ALWAYS_INLINE;
			static inline bool Endpoint_IsReadWriteAllowed(void)
			{
				return ((UEINTX & (1 << RWAL)) ? true : false);
    2dc6:	80 91 e8 00 	lds	r24, 0x00E8
		return false;

	if (!(Endpoint_IsReadWriteAllowed()))
    2dca:	85 ff       	sbrs	r24, 5
    2dcc:	15 c0       	rjmp	.+42     	; 0x2df8 <MIDI_Device_ReceiveEventPacket+0x4e>
	  return false;

	Endpoint_Read_Stream_LE(Event, sizeof(MIDI_EventPacket_t), NULL);
    2dce:	40 e0       	ldi	r20, 0x00	; 0
    2dd0:	50 e0       	ldi	r21, 0x00	; 0
    2dd2:	64 e0       	ldi	r22, 0x04	; 4
    2dd4:	70 e0       	ldi	r23, 0x00	; 0
    2dd6:	c9 01       	movw	r24, r18
    2dd8:	70 d0       	rcall	.+224    	; 0x2eba <Endpoint_Read_Stream_LE>
    2dda:	80 91 e8 00 	lds	r24, 0x00E8

	if (!(Endpoint_IsReadWriteAllowed()))
    2dde:	85 fd       	sbrc	r24, 5
    2de0:	0d c0       	rjmp	.+26     	; 0x2dfc <MIDI_Device_ReceiveEventPacket+0x52>
			 */
			static inline void Endpoint_ClearOUT(void) ATTR_ALWAYS_INLINE;
			static inline void Endpoint_ClearOUT(void)
			{
				#if !defined(CONTROL_ONLY_DEVICE)
					UEINTX &= ~((1 << RXOUTI) | (1 << FIFOCON));
    2de2:	e8 ee       	ldi	r30, 0xE8	; 232
    2de4:	f0 e0       	ldi	r31, 0x00	; 0
    2de6:	80 81       	ld	r24, Z
    2de8:	8b 77       	andi	r24, 0x7B	; 123
    2dea:	80 83       	st	Z, r24
	  Endpoint_ClearOUT();

	return true;
    2dec:	81 e0       	ldi	r24, 0x01	; 1
    2dee:	08 95       	ret

bool MIDI_Device_ReceiveEventPacket(USB_ClassInfo_MIDI_Device_t* const MIDIInterfaceInfo,
                                    MIDI_EventPacket_t* const Event)
{
	if (USB_DeviceState != DEVICE_STATE_Configured)
	  return false;
    2df0:	80 e0       	ldi	r24, 0x00	; 0
    2df2:	08 95       	ret

	Endpoint_SelectEndpoint(MIDIInterfaceInfo->Config.DataOUTEndpoint.Address);

	if (!(Endpoint_IsOUTReceived()))
		return false;
    2df4:	80 e0       	ldi	r24, 0x00	; 0
    2df6:	08 95       	ret

	if (!(Endpoint_IsReadWriteAllowed()))
	  return false;
    2df8:	80 e0       	ldi	r24, 0x00	; 0
    2dfa:	08 95       	ret
	Endpoint_Read_Stream_LE(Event, sizeof(MIDI_EventPacket_t), NULL);

	if (!(Endpoint_IsReadWriteAllowed()))
	  Endpoint_ClearOUT();

	return true;
    2dfc:	81 e0       	ldi	r24, 0x01	; 1
}
    2dfe:	08 95       	ret

00002e00 <Endpoint_Write_Stream_LE>:
		else if (USB_DeviceState_LCL == DEVICE_STATE_Suspended)
		  return ENDPOINT_RWCSTREAM_BusSuspended;
	}

	return ENDPOINT_RWCSTREAM_NoError;
}
    2e00:	8f 92       	push	r8
    2e02:	9f 92       	push	r9
    2e04:	af 92       	push	r10
    2e06:	bf 92       	push	r11
    2e08:	cf 92       	push	r12
    2e0a:	df 92       	push	r13
    2e0c:	ef 92       	push	r14
    2e0e:	ff 92       	push	r15
    2e10:	0f 93       	push	r16
    2e12:	1f 93       	push	r17
    2e14:	cf 93       	push	r28
    2e16:	df 93       	push	r29
    2e18:	7c 01       	movw	r14, r24
    2e1a:	eb 01       	movw	r28, r22
    2e1c:	5a 01       	movw	r10, r20
    2e1e:	99 d2       	rcall	.+1330   	; 0x3352 <Endpoint_WaitUntilReady>
    2e20:	81 11       	cpse	r24, r1
    2e22:	3e c0       	rjmp	.+124    	; 0x2ea0 <Endpoint_Write_Stream_LE+0xa0>
    2e24:	a1 14       	cp	r10, r1
    2e26:	b1 04       	cpc	r11, r1
    2e28:	39 f0       	breq	.+14     	; 0x2e38 <Endpoint_Write_Stream_LE+0x38>
    2e2a:	f5 01       	movw	r30, r10
    2e2c:	80 81       	ld	r24, Z
    2e2e:	91 81       	ldd	r25, Z+1	; 0x01
    2e30:	c8 1b       	sub	r28, r24
    2e32:	d9 0b       	sbc	r29, r25
    2e34:	e8 0e       	add	r14, r24
    2e36:	f9 1e       	adc	r15, r25
    2e38:	20 97       	sbiw	r28, 0x00	; 0
    2e3a:	79 f1       	breq	.+94     	; 0x2e9a <Endpoint_Write_Stream_LE+0x9a>
    2e3c:	00 e0       	ldi	r16, 0x00	; 0
    2e3e:	10 e0       	ldi	r17, 0x00	; 0
    2e40:	0f 2e       	mov	r0, r31
    2e42:	f8 ee       	ldi	r31, 0xE8	; 232
    2e44:	8f 2e       	mov	r8, r31
    2e46:	91 2c       	mov	r9, r1
    2e48:	f0 2d       	mov	r31, r0
    2e4a:	0f 2e       	mov	r0, r31
    2e4c:	f1 ef       	ldi	r31, 0xF1	; 241
    2e4e:	cf 2e       	mov	r12, r31
    2e50:	d1 2c       	mov	r13, r1
    2e52:	f0 2d       	mov	r31, r0
    2e54:	f4 01       	movw	r30, r8
    2e56:	80 81       	ld	r24, Z
    2e58:	85 fd       	sbrc	r24, 5
    2e5a:	14 c0       	rjmp	.+40     	; 0x2e84 <Endpoint_Write_Stream_LE+0x84>
    2e5c:	80 81       	ld	r24, Z
    2e5e:	8e 77       	andi	r24, 0x7E	; 126
    2e60:	80 83       	st	Z, r24
    2e62:	4a d5       	rcall	.+2708   	; 0x38f8 <USB_USBTask>
    2e64:	a1 14       	cp	r10, r1
    2e66:	b1 04       	cpc	r11, r1
    2e68:	49 f0       	breq	.+18     	; 0x2e7c <Endpoint_Write_Stream_LE+0x7c>
    2e6a:	f5 01       	movw	r30, r10
    2e6c:	80 81       	ld	r24, Z
    2e6e:	91 81       	ldd	r25, Z+1	; 0x01
    2e70:	08 0f       	add	r16, r24
    2e72:	19 1f       	adc	r17, r25
    2e74:	11 83       	std	Z+1, r17	; 0x01
    2e76:	00 83       	st	Z, r16
    2e78:	85 e0       	ldi	r24, 0x05	; 5
    2e7a:	12 c0       	rjmp	.+36     	; 0x2ea0 <Endpoint_Write_Stream_LE+0xa0>
    2e7c:	6a d2       	rcall	.+1236   	; 0x3352 <Endpoint_WaitUntilReady>
    2e7e:	88 23       	and	r24, r24
    2e80:	49 f0       	breq	.+18     	; 0x2e94 <Endpoint_Write_Stream_LE+0x94>
    2e82:	0e c0       	rjmp	.+28     	; 0x2ea0 <Endpoint_Write_Stream_LE+0xa0>
    2e84:	f7 01       	movw	r30, r14
    2e86:	81 91       	ld	r24, Z+
    2e88:	7f 01       	movw	r14, r30
    2e8a:	f6 01       	movw	r30, r12
    2e8c:	80 83       	st	Z, r24
    2e8e:	21 97       	sbiw	r28, 0x01	; 1
    2e90:	0f 5f       	subi	r16, 0xFF	; 255
    2e92:	1f 4f       	sbci	r17, 0xFF	; 255
    2e94:	20 97       	sbiw	r28, 0x00	; 0
    2e96:	f1 f6       	brne	.-68     	; 0x2e54 <Endpoint_Write_Stream_LE+0x54>
    2e98:	02 c0       	rjmp	.+4      	; 0x2e9e <Endpoint_Write_Stream_LE+0x9e>
    2e9a:	80 e0       	ldi	r24, 0x00	; 0
    2e9c:	01 c0       	rjmp	.+2      	; 0x2ea0 <Endpoint_Write_Stream_LE+0xa0>
    2e9e:	80 e0       	ldi	r24, 0x00	; 0
    2ea0:	df 91       	pop	r29
    2ea2:	cf 91       	pop	r28
    2ea4:	1f 91       	pop	r17
    2ea6:	0f 91       	pop	r16
    2ea8:	ff 90       	pop	r15
    2eaa:	ef 90       	pop	r14
    2eac:	df 90       	pop	r13
    2eae:	cf 90       	pop	r12
    2eb0:	bf 90       	pop	r11
    2eb2:	af 90       	pop	r10
    2eb4:	9f 90       	pop	r9
    2eb6:	8f 90       	pop	r8
    2eb8:	08 95       	ret

00002eba <Endpoint_Read_Stream_LE>:
    2eba:	8f 92       	push	r8
    2ebc:	9f 92       	push	r9
    2ebe:	af 92       	push	r10
    2ec0:	bf 92       	push	r11
    2ec2:	cf 92       	push	r12
    2ec4:	df 92       	push	r13
    2ec6:	ef 92       	push	r14
    2ec8:	ff 92       	push	r15
    2eca:	0f 93       	push	r16
    2ecc:	1f 93       	push	r17
    2ece:	cf 93       	push	r28
    2ed0:	df 93       	push	r29
    2ed2:	7c 01       	movw	r14, r24
    2ed4:	eb 01       	movw	r28, r22
    2ed6:	5a 01       	movw	r10, r20
    2ed8:	3c d2       	rcall	.+1144   	; 0x3352 <Endpoint_WaitUntilReady>
    2eda:	81 11       	cpse	r24, r1
    2edc:	3e c0       	rjmp	.+124    	; 0x2f5a <Endpoint_Read_Stream_LE+0xa0>
    2ede:	a1 14       	cp	r10, r1
    2ee0:	b1 04       	cpc	r11, r1
    2ee2:	39 f0       	breq	.+14     	; 0x2ef2 <Endpoint_Read_Stream_LE+0x38>
    2ee4:	f5 01       	movw	r30, r10
    2ee6:	80 81       	ld	r24, Z
    2ee8:	91 81       	ldd	r25, Z+1	; 0x01
    2eea:	c8 1b       	sub	r28, r24
    2eec:	d9 0b       	sbc	r29, r25
    2eee:	e8 0e       	add	r14, r24
    2ef0:	f9 1e       	adc	r15, r25
    2ef2:	20 97       	sbiw	r28, 0x00	; 0
    2ef4:	79 f1       	breq	.+94     	; 0x2f54 <Endpoint_Read_Stream_LE+0x9a>
    2ef6:	00 e0       	ldi	r16, 0x00	; 0
    2ef8:	10 e0       	ldi	r17, 0x00	; 0
    2efa:	0f 2e       	mov	r0, r31
    2efc:	f8 ee       	ldi	r31, 0xE8	; 232
    2efe:	8f 2e       	mov	r8, r31
    2f00:	91 2c       	mov	r9, r1
    2f02:	f0 2d       	mov	r31, r0
    2f04:	0f 2e       	mov	r0, r31
    2f06:	f1 ef       	ldi	r31, 0xF1	; 241
    2f08:	cf 2e       	mov	r12, r31
    2f0a:	d1 2c       	mov	r13, r1
    2f0c:	f0 2d       	mov	r31, r0
    2f0e:	f4 01       	movw	r30, r8
    2f10:	80 81       	ld	r24, Z
    2f12:	85 fd       	sbrc	r24, 5
    2f14:	14 c0       	rjmp	.+40     	; 0x2f3e <Endpoint_Read_Stream_LE+0x84>
    2f16:	80 81       	ld	r24, Z
    2f18:	8b 77       	andi	r24, 0x7B	; 123
    2f1a:	80 83       	st	Z, r24
    2f1c:	ed d4       	rcall	.+2522   	; 0x38f8 <USB_USBTask>
    2f1e:	a1 14       	cp	r10, r1
    2f20:	b1 04       	cpc	r11, r1
    2f22:	49 f0       	breq	.+18     	; 0x2f36 <Endpoint_Read_Stream_LE+0x7c>
    2f24:	f5 01       	movw	r30, r10
    2f26:	80 81       	ld	r24, Z
    2f28:	91 81       	ldd	r25, Z+1	; 0x01
    2f2a:	08 0f       	add	r16, r24
    2f2c:	19 1f       	adc	r17, r25
    2f2e:	11 83       	std	Z+1, r17	; 0x01
    2f30:	00 83       	st	Z, r16
    2f32:	85 e0       	ldi	r24, 0x05	; 5
    2f34:	12 c0       	rjmp	.+36     	; 0x2f5a <Endpoint_Read_Stream_LE+0xa0>
    2f36:	0d d2       	rcall	.+1050   	; 0x3352 <Endpoint_WaitUntilReady>
    2f38:	88 23       	and	r24, r24
    2f3a:	49 f0       	breq	.+18     	; 0x2f4e <Endpoint_Read_Stream_LE+0x94>
    2f3c:	0e c0       	rjmp	.+28     	; 0x2f5a <Endpoint_Read_Stream_LE+0xa0>
    2f3e:	f6 01       	movw	r30, r12
    2f40:	80 81       	ld	r24, Z
    2f42:	f7 01       	movw	r30, r14
    2f44:	81 93       	st	Z+, r24
    2f46:	7f 01       	movw	r14, r30
    2f48:	21 97       	sbiw	r28, 0x01	; 1
    2f4a:	0f 5f       	subi	r16, 0xFF	; 255
    2f4c:	1f 4f       	sbci	r17, 0xFF	; 255
    2f4e:	20 97       	sbiw	r28, 0x00	; 0
    2f50:	f1 f6       	brne	.-68     	; 0x2f0e <Endpoint_Read_Stream_LE+0x54>
    2f52:	02 c0       	rjmp	.+4      	; 0x2f58 <Endpoint_Read_Stream_LE+0x9e>
    2f54:	80 e0       	ldi	r24, 0x00	; 0
    2f56:	01 c0       	rjmp	.+2      	; 0x2f5a <Endpoint_Read_Stream_LE+0xa0>
    2f58:	80 e0       	ldi	r24, 0x00	; 0
    2f5a:	df 91       	pop	r29
    2f5c:	cf 91       	pop	r28
    2f5e:	1f 91       	pop	r17
    2f60:	0f 91       	pop	r16
    2f62:	ff 90       	pop	r15
    2f64:	ef 90       	pop	r14
    2f66:	df 90       	pop	r13
    2f68:	cf 90       	pop	r12
    2f6a:	bf 90       	pop	r11
    2f6c:	af 90       	pop	r10
    2f6e:	9f 90       	pop	r9
    2f70:	8f 90       	pop	r8
    2f72:	08 95       	ret

00002f74 <Endpoint_Write_Control_Stream_LE>:
    2f74:	df 92       	push	r13
    2f76:	ef 92       	push	r14
    2f78:	ff 92       	push	r15
    2f7a:	0f 93       	push	r16
    2f7c:	1f 93       	push	r17
    2f7e:	cf 93       	push	r28
    2f80:	df 93       	push	r29
    2f82:	20 91 0e 07 	lds	r18, 0x070E
    2f86:	30 91 0f 07 	lds	r19, 0x070F
    2f8a:	26 17       	cp	r18, r22
    2f8c:	37 07       	cpc	r19, r23
    2f8e:	58 f0       	brcs	.+22     	; 0x2fa6 <Endpoint_Write_Control_Stream_LE+0x32>
    2f90:	61 15       	cp	r22, r1
    2f92:	71 05       	cpc	r23, r1
    2f94:	39 f4       	brne	.+14     	; 0x2fa4 <Endpoint_Write_Control_Stream_LE+0x30>
    2f96:	e8 ee       	ldi	r30, 0xE8	; 232
    2f98:	f0 e0       	ldi	r31, 0x00	; 0
    2f9a:	20 81       	ld	r18, Z
    2f9c:	2e 77       	andi	r18, 0x7E	; 126
    2f9e:	20 83       	st	Z, r18
    2fa0:	9b 01       	movw	r18, r22
    2fa2:	01 c0       	rjmp	.+2      	; 0x2fa6 <Endpoint_Write_Control_Stream_LE+0x32>
    2fa4:	9b 01       	movw	r18, r22
    2fa6:	a0 e0       	ldi	r26, 0x00	; 0
    2fa8:	e8 ee       	ldi	r30, 0xE8	; 232
    2faa:	f0 e0       	ldi	r31, 0x00	; 0
    2fac:	03 ef       	ldi	r16, 0xF3	; 243
    2fae:	10 e0       	ldi	r17, 0x00	; 0
    2fb0:	62 ef       	ldi	r22, 0xF2	; 242
    2fb2:	70 e0       	ldi	r23, 0x00	; 0
    2fb4:	c1 ef       	ldi	r28, 0xF1	; 241
    2fb6:	d0 e0       	ldi	r29, 0x00	; 0
    2fb8:	ff 24       	eor	r15, r15
    2fba:	f3 94       	inc	r15
    2fbc:	e1 2c       	mov	r14, r1
    2fbe:	38 c0       	rjmp	.+112    	; 0x3030 <Endpoint_Write_Control_Stream_LE+0xbc>
    2fc0:	40 91 07 07 	lds	r20, 0x0707
    2fc4:	44 23       	and	r20, r20
    2fc6:	09 f4       	brne	.+2      	; 0x2fca <Endpoint_Write_Control_Stream_LE+0x56>
    2fc8:	47 c0       	rjmp	.+142    	; 0x3058 <Endpoint_Write_Control_Stream_LE+0xe4>
    2fca:	45 30       	cpi	r20, 0x05	; 5
    2fcc:	09 f4       	brne	.+2      	; 0x2fd0 <Endpoint_Write_Control_Stream_LE+0x5c>
    2fce:	46 c0       	rjmp	.+140    	; 0x305c <Endpoint_Write_Control_Stream_LE+0xe8>
    2fd0:	40 81       	ld	r20, Z
    2fd2:	43 fd       	sbrc	r20, 3
    2fd4:	45 c0       	rjmp	.+138    	; 0x3060 <Endpoint_Write_Control_Stream_LE+0xec>
    2fd6:	40 81       	ld	r20, Z
    2fd8:	42 ff       	sbrs	r20, 2
    2fda:	03 c0       	rjmp	.+6      	; 0x2fe2 <Endpoint_Write_Control_Stream_LE+0x6e>
    2fdc:	e8 ee       	ldi	r30, 0xE8	; 232
    2fde:	f0 e0       	ldi	r31, 0x00	; 0
    2fe0:	36 c0       	rjmp	.+108    	; 0x304e <Endpoint_Write_Control_Stream_LE+0xda>
    2fe2:	40 81       	ld	r20, Z
    2fe4:	40 ff       	sbrs	r20, 0
    2fe6:	24 c0       	rjmp	.+72     	; 0x3030 <Endpoint_Write_Control_Stream_LE+0xbc>
    2fe8:	d8 01       	movw	r26, r16
    2fea:	dc 90       	ld	r13, X
    2fec:	db 01       	movw	r26, r22
    2fee:	4c 91       	ld	r20, X
    2ff0:	50 e0       	ldi	r21, 0x00	; 0
    2ff2:	5d 29       	or	r21, r13
    2ff4:	21 15       	cp	r18, r1
    2ff6:	31 05       	cpc	r19, r1
    2ff8:	99 f0       	breq	.+38     	; 0x3020 <Endpoint_Write_Control_Stream_LE+0xac>
    2ffa:	48 30       	cpi	r20, 0x08	; 8
    2ffc:	51 05       	cpc	r21, r1
    2ffe:	80 f4       	brcc	.+32     	; 0x3020 <Endpoint_Write_Control_Stream_LE+0xac>
    3000:	a8 2f       	mov	r26, r24
    3002:	b9 2f       	mov	r27, r25
    3004:	8d 91       	ld	r24, X+
    3006:	88 83       	st	Y, r24
    3008:	8a 2f       	mov	r24, r26
    300a:	9b 2f       	mov	r25, r27
    300c:	21 50       	subi	r18, 0x01	; 1
    300e:	31 09       	sbc	r19, r1
    3010:	4f 5f       	subi	r20, 0xFF	; 255
    3012:	5f 4f       	sbci	r21, 0xFF	; 255
    3014:	21 15       	cp	r18, r1
    3016:	31 05       	cpc	r19, r1
    3018:	19 f0       	breq	.+6      	; 0x3020 <Endpoint_Write_Control_Stream_LE+0xac>
    301a:	48 30       	cpi	r20, 0x08	; 8
    301c:	51 05       	cpc	r21, r1
    301e:	91 f7       	brne	.-28     	; 0x3004 <Endpoint_Write_Control_Stream_LE+0x90>
    3020:	af 2d       	mov	r26, r15
    3022:	48 30       	cpi	r20, 0x08	; 8
    3024:	51 05       	cpc	r21, r1
    3026:	09 f0       	breq	.+2      	; 0x302a <Endpoint_Write_Control_Stream_LE+0xb6>
    3028:	ae 2d       	mov	r26, r14
    302a:	40 81       	ld	r20, Z
    302c:	4e 77       	andi	r20, 0x7E	; 126
    302e:	40 83       	st	Z, r20
    3030:	21 15       	cp	r18, r1
    3032:	31 05       	cpc	r19, r1
    3034:	29 f6       	brne	.-118    	; 0x2fc0 <Endpoint_Write_Control_Stream_LE+0x4c>
    3036:	a1 11       	cpse	r26, r1
    3038:	c3 cf       	rjmp	.-122    	; 0x2fc0 <Endpoint_Write_Control_Stream_LE+0x4c>
    303a:	d0 cf       	rjmp	.-96     	; 0x2fdc <Endpoint_Write_Control_Stream_LE+0x68>
    303c:	80 91 07 07 	lds	r24, 0x0707
    3040:	88 23       	and	r24, r24
    3042:	81 f0       	breq	.+32     	; 0x3064 <Endpoint_Write_Control_Stream_LE+0xf0>
    3044:	85 30       	cpi	r24, 0x05	; 5
    3046:	81 f0       	breq	.+32     	; 0x3068 <Endpoint_Write_Control_Stream_LE+0xf4>
    3048:	80 81       	ld	r24, Z
    304a:	83 fd       	sbrc	r24, 3
    304c:	0f c0       	rjmp	.+30     	; 0x306c <Endpoint_Write_Control_Stream_LE+0xf8>
    304e:	80 81       	ld	r24, Z
    3050:	82 ff       	sbrs	r24, 2
    3052:	f4 cf       	rjmp	.-24     	; 0x303c <Endpoint_Write_Control_Stream_LE+0xc8>
    3054:	80 e0       	ldi	r24, 0x00	; 0
    3056:	0b c0       	rjmp	.+22     	; 0x306e <Endpoint_Write_Control_Stream_LE+0xfa>
    3058:	82 e0       	ldi	r24, 0x02	; 2
    305a:	09 c0       	rjmp	.+18     	; 0x306e <Endpoint_Write_Control_Stream_LE+0xfa>
    305c:	83 e0       	ldi	r24, 0x03	; 3
    305e:	07 c0       	rjmp	.+14     	; 0x306e <Endpoint_Write_Control_Stream_LE+0xfa>
    3060:	81 e0       	ldi	r24, 0x01	; 1
    3062:	05 c0       	rjmp	.+10     	; 0x306e <Endpoint_Write_Control_Stream_LE+0xfa>
    3064:	82 e0       	ldi	r24, 0x02	; 2
    3066:	03 c0       	rjmp	.+6      	; 0x306e <Endpoint_Write_Control_Stream_LE+0xfa>
    3068:	83 e0       	ldi	r24, 0x03	; 3
    306a:	01 c0       	rjmp	.+2      	; 0x306e <Endpoint_Write_Control_Stream_LE+0xfa>
    306c:	81 e0       	ldi	r24, 0x01	; 1
    306e:	df 91       	pop	r29
    3070:	cf 91       	pop	r28
    3072:	1f 91       	pop	r17
    3074:	0f 91       	pop	r16
    3076:	ff 90       	pop	r15
    3078:	ef 90       	pop	r14
    307a:	df 90       	pop	r13
    307c:	08 95       	ret

0000307e <Endpoint_Write_Control_PStream_LE>:

#if defined(TEMPLATE_FUNC_NAME)

uint8_t TEMPLATE_FUNC_NAME (const void* const Buffer,
                            uint16_t Length)
{
    307e:	cf 92       	push	r12
    3080:	df 92       	push	r13
    3082:	ff 92       	push	r15
    3084:	0f 93       	push	r16
    3086:	1f 93       	push	r17
    3088:	cf 93       	push	r28
    308a:	df 93       	push	r29
	uint8_t* DataStream     = ((uint8_t*)Buffer + TEMPLATE_BUFFER_OFFSET(Length));
	bool     LastPacketFull = false;

	if (Length > USB_ControlRequest.wLength)
    308c:	20 91 0e 07 	lds	r18, 0x070E
    3090:	30 91 0f 07 	lds	r19, 0x070F
    3094:	26 17       	cp	r18, r22
    3096:	37 07       	cpc	r19, r23
    3098:	58 f0       	brcs	.+22     	; 0x30b0 <Endpoint_Write_Control_PStream_LE+0x32>
	  Length = USB_ControlRequest.wLength;
	else if (!(Length))
    309a:	61 15       	cp	r22, r1
    309c:	71 05       	cpc	r23, r1
    309e:	39 f4       	brne	.+14     	; 0x30ae <Endpoint_Write_Control_PStream_LE+0x30>
			 */
			static inline void Endpoint_ClearIN(void) ATTR_ALWAYS_INLINE;
			static inline void Endpoint_ClearIN(void)
			{
				#if !defined(CONTROL_ONLY_DEVICE)
					UEINTX &= ~((1 << TXINI) | (1 << FIFOCON));
    30a0:	e8 ee       	ldi	r30, 0xE8	; 232
    30a2:	f0 e0       	ldi	r31, 0x00	; 0
    30a4:	20 81       	ld	r18, Z
    30a6:	2e 77       	andi	r18, 0x7E	; 126
    30a8:	20 83       	st	Z, r18
    30aa:	9b 01       	movw	r18, r22
    30ac:	01 c0       	rjmp	.+2      	; 0x30b0 <Endpoint_Write_Control_PStream_LE+0x32>
    30ae:	9b 01       	movw	r18, r22
    30b0:	e8 2f       	mov	r30, r24
    30b2:	f9 2f       	mov	r31, r25
    30b4:	10 e0       	ldi	r17, 0x00	; 0
			 *  \return Boolean \c true if the selected endpoint has received a SETUP packet, \c false otherwise.
			 */
			static inline bool Endpoint_IsSETUPReceived(void) ATTR_WARN_UNUSED_RESULT ATTR_ALWAYS_INLINE;
			static inline bool Endpoint_IsSETUPReceived(void)
			{
				return ((UEINTX & (1 << RXSTPI)) ? true : false);
    30b6:	a8 ee       	ldi	r26, 0xE8	; 232
    30b8:	b0 e0       	ldi	r27, 0x00	; 0
			static inline uint16_t Endpoint_BytesInEndpoint(void)
			{
				#if (defined(USB_SERIES_6_AVR) || defined(USB_SERIES_7_AVR))
					return UEBCX;
				#elif defined(USB_SERIES_4_AVR)
					return (((uint16_t)UEBCHX << 8) | UEBCLX);
    30ba:	63 ef       	ldi	r22, 0xF3	; 243
    30bc:	70 e0       	ldi	r23, 0x00	; 0
    30be:	42 ef       	ldi	r20, 0xF2	; 242
    30c0:	50 e0       	ldi	r21, 0x00	; 0
			 *  \param[in] Data  Data to write into the the currently selected endpoint's FIFO buffer.
			 */
			static inline void Endpoint_Write_8(const uint8_t Data) ATTR_ALWAYS_INLINE;
			static inline void Endpoint_Write_8(const uint8_t Data)
			{
				UEDATX = Data;
    30c2:	0f 2e       	mov	r0, r31
    30c4:	f1 ef       	ldi	r31, 0xF1	; 241
    30c6:	cf 2e       	mov	r12, r31
    30c8:	d1 2c       	mov	r13, r1
    30ca:	f0 2d       	mov	r31, r0
				TEMPLATE_BUFFER_MOVE(DataStream, 1);
				Length--;
				BytesInEndpoint++;
			}

			LastPacketFull = (BytesInEndpoint == USB_Device_ControlEndpointSize);
    30cc:	01 e0       	ldi	r16, 0x01	; 1
    30ce:	f1 2c       	mov	r15, r1
    30d0:	34 c0       	rjmp	.+104    	; 0x313a <Endpoint_Write_Control_PStream_LE+0xbc>
	else if (!(Length))
	  Endpoint_ClearIN();

	while (Length || LastPacketFull)
	{
		uint8_t USB_DeviceState_LCL = USB_DeviceState;
    30d2:	80 91 07 07 	lds	r24, 0x0707

		if (USB_DeviceState_LCL == DEVICE_STATE_Unattached)
    30d6:	88 23       	and	r24, r24
    30d8:	09 f4       	brne	.+2      	; 0x30dc <Endpoint_Write_Control_PStream_LE+0x5e>
    30da:	43 c0       	rjmp	.+134    	; 0x3162 <Endpoint_Write_Control_PStream_LE+0xe4>
		  return ENDPOINT_RWCSTREAM_DeviceDisconnected;
		else if (USB_DeviceState_LCL == DEVICE_STATE_Suspended)
    30dc:	85 30       	cpi	r24, 0x05	; 5
    30de:	09 f4       	brne	.+2      	; 0x30e2 <Endpoint_Write_Control_PStream_LE+0x64>
    30e0:	42 c0       	rjmp	.+132    	; 0x3166 <Endpoint_Write_Control_PStream_LE+0xe8>
			 *  \return Boolean \c true if the selected endpoint has received a SETUP packet, \c false otherwise.
			 */
			static inline bool Endpoint_IsSETUPReceived(void) ATTR_WARN_UNUSED_RESULT ATTR_ALWAYS_INLINE;
			static inline bool Endpoint_IsSETUPReceived(void)
			{
				return ((UEINTX & (1 << RXSTPI)) ? true : false);
    30e2:	8c 91       	ld	r24, X
		  return ENDPOINT_RWCSTREAM_BusSuspended;
		else if (Endpoint_IsSETUPReceived())
    30e4:	83 fd       	sbrc	r24, 3
    30e6:	41 c0       	rjmp	.+130    	; 0x316a <Endpoint_Write_Control_PStream_LE+0xec>
			 *  \return Boolean \c true if current endpoint is has received an OUT packet, \c false otherwise.
			 */
			static inline bool Endpoint_IsOUTReceived(void) ATTR_WARN_UNUSED_RESULT ATTR_ALWAYS_INLINE;
			static inline bool Endpoint_IsOUTReceived(void)
			{
				return ((UEINTX & (1 << RXOUTI)) ? true : false);
    30e8:	8c 91       	ld	r24, X
		  return ENDPOINT_RWCSTREAM_HostAborted;
		else if (Endpoint_IsOUTReceived())
    30ea:	82 ff       	sbrs	r24, 2
    30ec:	03 c0       	rjmp	.+6      	; 0x30f4 <Endpoint_Write_Control_PStream_LE+0x76>
    30ee:	e8 ee       	ldi	r30, 0xE8	; 232
    30f0:	f0 e0       	ldi	r31, 0x00	; 0
    30f2:	32 c0       	rjmp	.+100    	; 0x3158 <Endpoint_Write_Control_PStream_LE+0xda>
			 *  \return Boolean \c true if the current endpoint is ready for an IN packet, \c false otherwise.
			 */
			static inline bool Endpoint_IsINReady(void) ATTR_WARN_UNUSED_RESULT ATTR_ALWAYS_INLINE;
			static inline bool Endpoint_IsINReady(void)
			{
				return ((UEINTX & (1 << TXINI)) ? true : false);
    30f4:	8c 91       	ld	r24, X
		  break;

		if (Endpoint_IsINReady())
    30f6:	80 ff       	sbrs	r24, 0
    30f8:	20 c0       	rjmp	.+64     	; 0x313a <Endpoint_Write_Control_PStream_LE+0xbc>
			static inline uint16_t Endpoint_BytesInEndpoint(void)
			{
				#if (defined(USB_SERIES_6_AVR) || defined(USB_SERIES_7_AVR))
					return UEBCX;
				#elif defined(USB_SERIES_4_AVR)
					return (((uint16_t)UEBCHX << 8) | UEBCLX);
    30fa:	eb 01       	movw	r28, r22
    30fc:	18 81       	ld	r17, Y
    30fe:	ea 01       	movw	r28, r20
    3100:	88 81       	ld	r24, Y
    3102:	90 e0       	ldi	r25, 0x00	; 0
    3104:	91 2b       	or	r25, r17
		{
			uint16_t BytesInEndpoint = Endpoint_BytesInEndpoint();

			while (Length && (BytesInEndpoint < USB_Device_ControlEndpointSize))
    3106:	21 15       	cp	r18, r1
    3108:	31 05       	cpc	r19, r1
    310a:	81 f0       	breq	.+32     	; 0x312c <Endpoint_Write_Control_PStream_LE+0xae>
    310c:	88 30       	cpi	r24, 0x08	; 8
    310e:	91 05       	cpc	r25, r1
    3110:	68 f4       	brcc	.+26     	; 0x312c <Endpoint_Write_Control_PStream_LE+0xae>
			{
				TEMPLATE_TRANSFER_BYTE(DataStream);
    3112:	14 91       	lpm	r17, Z
			 *  \param[in] Data  Data to write into the the currently selected endpoint's FIFO buffer.
			 */
			static inline void Endpoint_Write_8(const uint8_t Data) ATTR_ALWAYS_INLINE;
			static inline void Endpoint_Write_8(const uint8_t Data)
			{
				UEDATX = Data;
    3114:	e6 01       	movw	r28, r12
    3116:	18 83       	st	Y, r17
				TEMPLATE_BUFFER_MOVE(DataStream, 1);
    3118:	31 96       	adiw	r30, 0x01	; 1
				Length--;
    311a:	21 50       	subi	r18, 0x01	; 1
    311c:	31 09       	sbc	r19, r1
				BytesInEndpoint++;
    311e:	01 96       	adiw	r24, 0x01	; 1

		if (Endpoint_IsINReady())
		{
			uint16_t BytesInEndpoint = Endpoint_BytesInEndpoint();

			while (Length && (BytesInEndpoint < USB_Device_ControlEndpointSize))
    3120:	21 15       	cp	r18, r1
    3122:	31 05       	cpc	r19, r1
    3124:	19 f0       	breq	.+6      	; 0x312c <Endpoint_Write_Control_PStream_LE+0xae>
    3126:	88 30       	cpi	r24, 0x08	; 8
    3128:	91 05       	cpc	r25, r1
    312a:	99 f7       	brne	.-26     	; 0x3112 <Endpoint_Write_Control_PStream_LE+0x94>
				TEMPLATE_BUFFER_MOVE(DataStream, 1);
				Length--;
				BytesInEndpoint++;
			}

			LastPacketFull = (BytesInEndpoint == USB_Device_ControlEndpointSize);
    312c:	10 2f       	mov	r17, r16
    312e:	08 97       	sbiw	r24, 0x08	; 8
    3130:	09 f0       	breq	.+2      	; 0x3134 <Endpoint_Write_Control_PStream_LE+0xb6>
    3132:	1f 2d       	mov	r17, r15
			 */
			static inline void Endpoint_ClearIN(void) ATTR_ALWAYS_INLINE;
			static inline void Endpoint_ClearIN(void)
			{
				#if !defined(CONTROL_ONLY_DEVICE)
					UEINTX &= ~((1 << TXINI) | (1 << FIFOCON));
    3134:	8c 91       	ld	r24, X
    3136:	8e 77       	andi	r24, 0x7E	; 126
    3138:	8c 93       	st	X, r24
	if (Length > USB_ControlRequest.wLength)
	  Length = USB_ControlRequest.wLength;
	else if (!(Length))
	  Endpoint_ClearIN();

	while (Length || LastPacketFull)
    313a:	21 15       	cp	r18, r1
    313c:	31 05       	cpc	r19, r1
    313e:	49 f6       	brne	.-110    	; 0x30d2 <Endpoint_Write_Control_PStream_LE+0x54>
    3140:	11 11       	cpse	r17, r1
    3142:	c7 cf       	rjmp	.-114    	; 0x30d2 <Endpoint_Write_Control_PStream_LE+0x54>
    3144:	d4 cf       	rjmp	.-88     	; 0x30ee <Endpoint_Write_Control_PStream_LE+0x70>
		}
	}

	while (!(Endpoint_IsOUTReceived()))
	{
		uint8_t USB_DeviceState_LCL = USB_DeviceState;
    3146:	80 91 07 07 	lds	r24, 0x0707

		if (USB_DeviceState_LCL == DEVICE_STATE_Unattached)
    314a:	88 23       	and	r24, r24
    314c:	81 f0       	breq	.+32     	; 0x316e <Endpoint_Write_Control_PStream_LE+0xf0>
		  return ENDPOINT_RWCSTREAM_DeviceDisconnected;
		else if (USB_DeviceState_LCL == DEVICE_STATE_Suspended)
    314e:	85 30       	cpi	r24, 0x05	; 5
    3150:	81 f0       	breq	.+32     	; 0x3172 <Endpoint_Write_Control_PStream_LE+0xf4>
			 *  \return Boolean \c true if the selected endpoint has received a SETUP packet, \c false otherwise.
			 */
			static inline bool Endpoint_IsSETUPReceived(void) ATTR_WARN_UNUSED_RESULT ATTR_ALWAYS_INLINE;
			static inline bool Endpoint_IsSETUPReceived(void)
			{
				return ((UEINTX & (1 << RXSTPI)) ? true : false);
    3152:	80 81       	ld	r24, Z
		  return ENDPOINT_RWCSTREAM_BusSuspended;
		else if (Endpoint_IsSETUPReceived())
    3154:	83 fd       	sbrc	r24, 3
    3156:	0f c0       	rjmp	.+30     	; 0x3176 <Endpoint_Write_Control_PStream_LE+0xf8>
			 *  \return Boolean \c true if current endpoint is has received an OUT packet, \c false otherwise.
			 */
			static inline bool Endpoint_IsOUTReceived(void) ATTR_WARN_UNUSED_RESULT ATTR_ALWAYS_INLINE;
			static inline bool Endpoint_IsOUTReceived(void)
			{
				return ((UEINTX & (1 << RXOUTI)) ? true : false);
    3158:	80 81       	ld	r24, Z
			LastPacketFull = (BytesInEndpoint == USB_Device_ControlEndpointSize);
			Endpoint_ClearIN();
		}
	}

	while (!(Endpoint_IsOUTReceived()))
    315a:	82 ff       	sbrs	r24, 2
    315c:	f4 cf       	rjmp	.-24     	; 0x3146 <Endpoint_Write_Control_PStream_LE+0xc8>
		  return ENDPOINT_RWCSTREAM_BusSuspended;
		else if (Endpoint_IsSETUPReceived())
		  return ENDPOINT_RWCSTREAM_HostAborted;
	}

	return ENDPOINT_RWCSTREAM_NoError;
    315e:	80 e0       	ldi	r24, 0x00	; 0
    3160:	0b c0       	rjmp	.+22     	; 0x3178 <Endpoint_Write_Control_PStream_LE+0xfa>
	while (Length || LastPacketFull)
	{
		uint8_t USB_DeviceState_LCL = USB_DeviceState;

		if (USB_DeviceState_LCL == DEVICE_STATE_Unattached)
		  return ENDPOINT_RWCSTREAM_DeviceDisconnected;
    3162:	82 e0       	ldi	r24, 0x02	; 2
    3164:	09 c0       	rjmp	.+18     	; 0x3178 <Endpoint_Write_Control_PStream_LE+0xfa>
		else if (USB_DeviceState_LCL == DEVICE_STATE_Suspended)
		  return ENDPOINT_RWCSTREAM_BusSuspended;
    3166:	83 e0       	ldi	r24, 0x03	; 3
    3168:	07 c0       	rjmp	.+14     	; 0x3178 <Endpoint_Write_Control_PStream_LE+0xfa>
		else if (Endpoint_IsSETUPReceived())
		  return ENDPOINT_RWCSTREAM_HostAborted;
    316a:	81 e0       	ldi	r24, 0x01	; 1
    316c:	05 c0       	rjmp	.+10     	; 0x3178 <Endpoint_Write_Control_PStream_LE+0xfa>
	while (!(Endpoint_IsOUTReceived()))
	{
		uint8_t USB_DeviceState_LCL = USB_DeviceState;

		if (USB_DeviceState_LCL == DEVICE_STATE_Unattached)
		  return ENDPOINT_RWCSTREAM_DeviceDisconnected;
    316e:	82 e0       	ldi	r24, 0x02	; 2
    3170:	03 c0       	rjmp	.+6      	; 0x3178 <Endpoint_Write_Control_PStream_LE+0xfa>
		else if (USB_DeviceState_LCL == DEVICE_STATE_Suspended)
		  return ENDPOINT_RWCSTREAM_BusSuspended;
    3172:	83 e0       	ldi	r24, 0x03	; 3
    3174:	01 c0       	rjmp	.+2      	; 0x3178 <Endpoint_Write_Control_PStream_LE+0xfa>
		else if (Endpoint_IsSETUPReceived())
		  return ENDPOINT_RWCSTREAM_HostAborted;
    3176:	81 e0       	ldi	r24, 0x01	; 1
	}

	return ENDPOINT_RWCSTREAM_NoError;
}
    3178:	df 91       	pop	r29
    317a:	cf 91       	pop	r28
    317c:	1f 91       	pop	r17
    317e:	0f 91       	pop	r16
    3180:	ff 90       	pop	r15
    3182:	df 90       	pop	r13
    3184:	cf 90       	pop	r12
    3186:	08 95       	ret

00003188 <Endpoint_ConfigureEndpoint_Prv>:
		UEIENX  = 0;
		UEINTX  = 0;
		UECFG1X = 0;
		Endpoint_DisableEndpoint();
	}
}
    3188:	8f 92       	push	r8
    318a:	9f 92       	push	r9
    318c:	bf 92       	push	r11
    318e:	cf 92       	push	r12
    3190:	df 92       	push	r13
    3192:	ef 92       	push	r14
    3194:	ff 92       	push	r15
    3196:	0f 93       	push	r16
    3198:	1f 93       	push	r17
    319a:	cf 93       	push	r28
    319c:	df 93       	push	r29
    319e:	87 30       	cpi	r24, 0x07	; 7
    31a0:	70 f1       	brcs	.+92     	; 0x31fe <Endpoint_ConfigureEndpoint_Prv+0x76>
    31a2:	26 c0       	rjmp	.+76     	; 0x31f0 <Endpoint_ConfigureEndpoint_Prv+0x68>
    31a4:	59 2f       	mov	r21, r25
    31a6:	5f 70       	andi	r21, 0x0F	; 15
    31a8:	e8 01       	movw	r28, r16
    31aa:	58 83       	st	Y, r21
    31ac:	89 17       	cp	r24, r25
    31ae:	31 f0       	breq	.+12     	; 0x31bc <Endpoint_ConfigureEndpoint_Prv+0x34>
    31b0:	e9 01       	movw	r28, r18
    31b2:	d8 80       	ld	r13, Y
    31b4:	50 81       	ld	r21, Z
    31b6:	e4 01       	movw	r28, r8
    31b8:	78 81       	ld	r23, Y
    31ba:	03 c0       	rjmp	.+6      	; 0x31c2 <Endpoint_ConfigureEndpoint_Prv+0x3a>
    31bc:	5b 2d       	mov	r21, r11
    31be:	d6 2e       	mov	r13, r22
    31c0:	7c 2d       	mov	r23, r12
    31c2:	51 ff       	sbrs	r21, 1
    31c4:	12 c0       	rjmp	.+36     	; 0x31ea <Endpoint_ConfigureEndpoint_Prv+0x62>
    31c6:	4c 91       	ld	r20, X
    31c8:	4e 7f       	andi	r20, 0xFE	; 254
    31ca:	4c 93       	st	X, r20
    31cc:	40 81       	ld	r20, Z
    31ce:	4d 7f       	andi	r20, 0xFD	; 253
    31d0:	40 83       	st	Z, r20
    31d2:	4c 91       	ld	r20, X
    31d4:	41 60       	ori	r20, 0x01	; 1
    31d6:	4c 93       	st	X, r20
    31d8:	e9 01       	movw	r28, r18
    31da:	d8 82       	st	Y, r13
    31dc:	50 83       	st	Z, r21
    31de:	e4 01       	movw	r28, r8
    31e0:	78 83       	st	Y, r23
    31e2:	e7 01       	movw	r28, r14
    31e4:	58 81       	ld	r21, Y
    31e6:	55 23       	and	r21, r21
    31e8:	44 f4       	brge	.+16     	; 0x31fa <Endpoint_ConfigureEndpoint_Prv+0x72>
    31ea:	9f 5f       	subi	r25, 0xFF	; 255
    31ec:	97 30       	cpi	r25, 0x07	; 7
    31ee:	d1 f6       	brne	.-76     	; 0x31a4 <Endpoint_ConfigureEndpoint_Prv+0x1c>
    31f0:	8f 70       	andi	r24, 0x0F	; 15
    31f2:	80 93 e9 00 	sts	0x00E9, r24
    31f6:	81 e0       	ldi	r24, 0x01	; 1
    31f8:	1f c0       	rjmp	.+62     	; 0x3238 <Endpoint_ConfigureEndpoint_Prv+0xb0>
    31fa:	80 e0       	ldi	r24, 0x00	; 0
    31fc:	1d c0       	rjmp	.+58     	; 0x3238 <Endpoint_ConfigureEndpoint_Prv+0xb0>
    31fe:	98 2f       	mov	r25, r24
    3200:	9f 70       	andi	r25, 0x0F	; 15
    3202:	90 93 e9 00 	sts	0x00E9, r25
    3206:	98 2f       	mov	r25, r24
    3208:	54 2f       	mov	r21, r20
    320a:	d6 2e       	mov	r13, r22
    320c:	70 e0       	ldi	r23, 0x00	; 0
    320e:	ab ee       	ldi	r26, 0xEB	; 235
    3210:	b0 e0       	ldi	r27, 0x00	; 0
    3212:	ed ee       	ldi	r30, 0xED	; 237
    3214:	f0 e0       	ldi	r31, 0x00	; 0
    3216:	2c ee       	ldi	r18, 0xEC	; 236
    3218:	30 e0       	ldi	r19, 0x00	; 0
    321a:	0f 2e       	mov	r0, r31
    321c:	f0 ef       	ldi	r31, 0xF0	; 240
    321e:	8f 2e       	mov	r8, r31
    3220:	91 2c       	mov	r9, r1
    3222:	f0 2d       	mov	r31, r0
    3224:	0f 2e       	mov	r0, r31
    3226:	fe ee       	ldi	r31, 0xEE	; 238
    3228:	ef 2e       	mov	r14, r31
    322a:	f1 2c       	mov	r15, r1
    322c:	f0 2d       	mov	r31, r0
    322e:	09 ee       	ldi	r16, 0xE9	; 233
    3230:	10 e0       	ldi	r17, 0x00	; 0
    3232:	b4 2e       	mov	r11, r20
    3234:	c1 2c       	mov	r12, r1
    3236:	c5 cf       	rjmp	.-118    	; 0x31c2 <Endpoint_ConfigureEndpoint_Prv+0x3a>
    3238:	df 91       	pop	r29
    323a:	cf 91       	pop	r28
    323c:	1f 91       	pop	r17
    323e:	0f 91       	pop	r16
    3240:	ff 90       	pop	r15
    3242:	ef 90       	pop	r14
    3244:	df 90       	pop	r13
    3246:	cf 90       	pop	r12
    3248:	bf 90       	pop	r11
    324a:	9f 90       	pop	r9
    324c:	8f 90       	pop	r8
    324e:	08 95       	ret

00003250 <Endpoint_ConfigureEndpointTable>:
    3250:	bf 92       	push	r11
    3252:	cf 92       	push	r12
    3254:	df 92       	push	r13
    3256:	ef 92       	push	r14
    3258:	ff 92       	push	r15
    325a:	0f 93       	push	r16
    325c:	1f 93       	push	r17
    325e:	cf 93       	push	r28
    3260:	df 93       	push	r29
    3262:	06 2f       	mov	r16, r22
    3264:	66 23       	and	r22, r22
    3266:	09 f4       	brne	.+2      	; 0x326a <Endpoint_ConfigureEndpointTable+0x1a>
    3268:	41 c0       	rjmp	.+130    	; 0x32ec <Endpoint_ConfigureEndpointTable+0x9c>
    326a:	c8 2f       	mov	r28, r24
    326c:	d9 2f       	mov	r29, r25
    326e:	10 e0       	ldi	r17, 0x00	; 0
    3270:	f1 2c       	mov	r15, r1
    3272:	68 94       	set
    3274:	dd 24       	eor	r13, r13
    3276:	d3 f8       	bld	r13, 3
    3278:	e1 2c       	mov	r14, r1
    327a:	68 94       	set
    327c:	bb 24       	eor	r11, r11
    327e:	b1 f8       	bld	r11, 1
    3280:	0f 2e       	mov	r0, r31
    3282:	f6 e0       	ldi	r31, 0x06	; 6
    3284:	cf 2e       	mov	r12, r31
    3286:	f0 2d       	mov	r31, r0
    3288:	58 81       	ld	r21, Y
    328a:	55 23       	and	r21, r21
    328c:	51 f1       	breq	.+84     	; 0x32e2 <Endpoint_ConfigureEndpointTable+0x92>
    328e:	9c 81       	ldd	r25, Y+4	; 0x04
    3290:	e9 81       	ldd	r30, Y+1	; 0x01
    3292:	fa 81       	ldd	r31, Y+2	; 0x02
    3294:	7b 81       	ldd	r23, Y+3	; 0x03
    3296:	85 2f       	mov	r24, r21
    3298:	8f 70       	andi	r24, 0x0F	; 15
    329a:	87 30       	cpi	r24, 0x07	; 7
    329c:	48 f5       	brcc	.+82     	; 0x32f0 <Endpoint_ConfigureEndpointTable+0xa0>
    329e:	92 30       	cpi	r25, 0x02	; 2
    32a0:	10 f0       	brcs	.+4      	; 0x32a6 <Endpoint_ConfigureEndpointTable+0x56>
    32a2:	4c 2d       	mov	r20, r12
    32a4:	01 c0       	rjmp	.+2      	; 0x32a8 <Endpoint_ConfigureEndpointTable+0x58>
    32a6:	4b 2d       	mov	r20, r11
    32a8:	e9 30       	cpi	r30, 0x09	; 9
    32aa:	f1 05       	cpc	r31, r1
    32ac:	50 f0       	brcs	.+20     	; 0x32c2 <Endpoint_ConfigureEndpointTable+0x72>
    32ae:	2d 2d       	mov	r18, r13
    32b0:	3e 2d       	mov	r19, r14
    32b2:	9f 2d       	mov	r25, r15
    32b4:	9f 5f       	subi	r25, 0xFF	; 255
    32b6:	22 0f       	add	r18, r18
    32b8:	33 1f       	adc	r19, r19
    32ba:	2e 17       	cp	r18, r30
    32bc:	3f 07       	cpc	r19, r31
    32be:	d0 f3       	brcs	.-12     	; 0x32b4 <Endpoint_ConfigureEndpointTable+0x64>
    32c0:	01 c0       	rjmp	.+2      	; 0x32c4 <Endpoint_ConfigureEndpointTable+0x74>
    32c2:	9f 2d       	mov	r25, r15
    32c4:	92 95       	swap	r25
    32c6:	90 7f       	andi	r25, 0xF0	; 240
    32c8:	49 2b       	or	r20, r25
    32ca:	55 1f       	adc	r21, r21
    32cc:	55 27       	eor	r21, r21
    32ce:	55 1f       	adc	r21, r21
    32d0:	90 e4       	ldi	r25, 0x40	; 64
    32d2:	79 9f       	mul	r23, r25
    32d4:	90 01       	movw	r18, r0
    32d6:	11 24       	eor	r1, r1
    32d8:	65 2f       	mov	r22, r21
    32da:	62 2b       	or	r22, r18
    32dc:	55 df       	rcall	.-342    	; 0x3188 <Endpoint_ConfigureEndpoint_Prv>
    32de:	88 23       	and	r24, r24
    32e0:	51 f0       	breq	.+20     	; 0x32f6 <Endpoint_ConfigureEndpointTable+0xa6>
    32e2:	1f 5f       	subi	r17, 0xFF	; 255
    32e4:	25 96       	adiw	r28, 0x05	; 5
    32e6:	10 13       	cpse	r17, r16
    32e8:	cf cf       	rjmp	.-98     	; 0x3288 <Endpoint_ConfigureEndpointTable+0x38>
    32ea:	04 c0       	rjmp	.+8      	; 0x32f4 <Endpoint_ConfigureEndpointTable+0xa4>
    32ec:	81 e0       	ldi	r24, 0x01	; 1
    32ee:	03 c0       	rjmp	.+6      	; 0x32f6 <Endpoint_ConfigureEndpointTable+0xa6>
    32f0:	80 e0       	ldi	r24, 0x00	; 0
    32f2:	01 c0       	rjmp	.+2      	; 0x32f6 <Endpoint_ConfigureEndpointTable+0xa6>
    32f4:	81 e0       	ldi	r24, 0x01	; 1
    32f6:	df 91       	pop	r29
    32f8:	cf 91       	pop	r28
    32fa:	1f 91       	pop	r17
    32fc:	0f 91       	pop	r16
    32fe:	ff 90       	pop	r15
    3300:	ef 90       	pop	r14
    3302:	df 90       	pop	r13
    3304:	cf 90       	pop	r12
    3306:	bf 90       	pop	r11
    3308:	08 95       	ret

0000330a <Endpoint_ClearStatusStage>:

void Endpoint_ClearStatusStage(void)
{
	if (USB_ControlRequest.bmRequestType & REQDIR_DEVICETOHOST)
    330a:	80 91 08 07 	lds	r24, 0x0708
    330e:	88 23       	and	r24, r24
    3310:	1c f0       	brlt	.+6      	; 0x3318 <Endpoint_ClearStatusStage+0xe>
			 *  \return Boolean \c true if the current endpoint is ready for an IN packet, \c false otherwise.
			 */
			static inline bool Endpoint_IsINReady(void) ATTR_WARN_UNUSED_RESULT ATTR_ALWAYS_INLINE;
			static inline bool Endpoint_IsINReady(void)
			{
				return ((UEINTX & (1 << TXINI)) ? true : false);
    3312:	e8 ee       	ldi	r30, 0xE8	; 232
    3314:	f0 e0       	ldi	r31, 0x00	; 0
    3316:	14 c0       	rjmp	.+40     	; 0x3340 <Endpoint_ClearStatusStage+0x36>
			 *  \return Boolean \c true if current endpoint is has received an OUT packet, \c false otherwise.
			 */
			static inline bool Endpoint_IsOUTReceived(void) ATTR_WARN_UNUSED_RESULT ATTR_ALWAYS_INLINE;
			static inline bool Endpoint_IsOUTReceived(void)
			{
				return ((UEINTX & (1 << RXOUTI)) ? true : false);
    3318:	e8 ee       	ldi	r30, 0xE8	; 232
    331a:	f0 e0       	ldi	r31, 0x00	; 0
    331c:	04 c0       	rjmp	.+8      	; 0x3326 <Endpoint_ClearStatusStage+0x1c>
	{
		while (!(Endpoint_IsOUTReceived()))
		{
			if (USB_DeviceState == DEVICE_STATE_Unattached)
    331e:	80 91 07 07 	lds	r24, 0x0707
    3322:	88 23       	and	r24, r24
    3324:	a9 f0       	breq	.+42     	; 0x3350 <Endpoint_ClearStatusStage+0x46>
    3326:	80 81       	ld	r24, Z

void Endpoint_ClearStatusStage(void)
{
	if (USB_ControlRequest.bmRequestType & REQDIR_DEVICETOHOST)
	{
		while (!(Endpoint_IsOUTReceived()))
    3328:	82 ff       	sbrs	r24, 2
    332a:	f9 cf       	rjmp	.-14     	; 0x331e <Endpoint_ClearStatusStage+0x14>
			 */
			static inline void Endpoint_ClearOUT(void) ATTR_ALWAYS_INLINE;
			static inline void Endpoint_ClearOUT(void)
			{
				#if !defined(CONTROL_ONLY_DEVICE)
					UEINTX &= ~((1 << RXOUTI) | (1 << FIFOCON));
    332c:	e8 ee       	ldi	r30, 0xE8	; 232
    332e:	f0 e0       	ldi	r31, 0x00	; 0
    3330:	80 81       	ld	r24, Z
    3332:	8b 77       	andi	r24, 0x7B	; 123
    3334:	80 83       	st	Z, r24
    3336:	08 95       	ret
	}
	else
	{
		while (!(Endpoint_IsINReady()))
		{
			if (USB_DeviceState == DEVICE_STATE_Unattached)
    3338:	80 91 07 07 	lds	r24, 0x0707
    333c:	88 23       	and	r24, r24
    333e:	41 f0       	breq	.+16     	; 0x3350 <Endpoint_ClearStatusStage+0x46>
			 *  \return Boolean \c true if the current endpoint is ready for an IN packet, \c false otherwise.
			 */
			static inline bool Endpoint_IsINReady(void) ATTR_WARN_UNUSED_RESULT ATTR_ALWAYS_INLINE;
			static inline bool Endpoint_IsINReady(void)
			{
				return ((UEINTX & (1 << TXINI)) ? true : false);
    3340:	80 81       	ld	r24, Z

		Endpoint_ClearOUT();
	}
	else
	{
		while (!(Endpoint_IsINReady()))
    3342:	80 ff       	sbrs	r24, 0
    3344:	f9 cf       	rjmp	.-14     	; 0x3338 <Endpoint_ClearStatusStage+0x2e>
			 */
			static inline void Endpoint_ClearIN(void) ATTR_ALWAYS_INLINE;
			static inline void Endpoint_ClearIN(void)
			{
				#if !defined(CONTROL_ONLY_DEVICE)
					UEINTX &= ~((1 << TXINI) | (1 << FIFOCON));
    3346:	e8 ee       	ldi	r30, 0xE8	; 232
    3348:	f0 e0       	ldi	r31, 0x00	; 0
    334a:	80 81       	ld	r24, Z
    334c:	8e 77       	andi	r24, 0x7E	; 126
    334e:	80 83       	st	Z, r24
    3350:	08 95       	ret

00003352 <Endpoint_WaitUntilReady>:
	}
}

#if !defined(CONTROL_ONLY_DEVICE)
uint8_t Endpoint_WaitUntilReady(void)
{
    3352:	0f 93       	push	r16
    3354:	1f 93       	push	r17
    3356:	cf 93       	push	r28
    3358:	df 93       	push	r29
			 *  \return Current USB frame number from the USB controller.
			 */
			static inline uint16_t USB_Device_GetFrameNumber(void) ATTR_ALWAYS_INLINE ATTR_WARN_UNUSED_RESULT;
			static inline uint16_t USB_Device_GetFrameNumber(void)
			{
				return UDFNUM;
    335a:	20 91 e4 00 	lds	r18, 0x00E4
    335e:	30 91 e5 00 	lds	r19, 0x00E5
    3362:	65 e6       	ldi	r22, 0x65	; 101
			 *  \return The currently selected endpoint's direction, as a \c ENDPOINT_DIR_* mask.
			 */
			static inline uint8_t Endpoint_GetEndpointDirection(void) ATTR_WARN_UNUSED_RESULT ATTR_ALWAYS_INLINE;
			static inline uint8_t Endpoint_GetEndpointDirection(void)
			{
				return (UECFG0X & (1 << EPDIR)) ? ENDPOINT_DIR_IN : ENDPOINT_DIR_OUT;
    3364:	ac ee       	ldi	r26, 0xEC	; 236
    3366:	b0 e0       	ldi	r27, 0x00	; 0
			 *  \return Boolean \c true if current endpoint is has received an OUT packet, \c false otherwise.
			 */
			static inline bool Endpoint_IsOUTReceived(void) ATTR_WARN_UNUSED_RESULT ATTR_ALWAYS_INLINE;
			static inline bool Endpoint_IsOUTReceived(void)
			{
				return ((UEINTX & (1 << RXOUTI)) ? true : false);
    3368:	e8 ee       	ldi	r30, 0xE8	; 232
    336a:	f0 e0       	ldi	r31, 0x00	; 0
			 *  \return Boolean \c true if the currently selected endpoint is stalled, \c false otherwise.
			 */
			static inline bool Endpoint_IsStalled(void) ATTR_WARN_UNUSED_RESULT ATTR_ALWAYS_INLINE;
			static inline bool Endpoint_IsStalled(void)
			{
				return ((UECONX & (1 << STALLRQ)) ? true : false);
    336c:	0b ee       	ldi	r16, 0xEB	; 235
    336e:	10 e0       	ldi	r17, 0x00	; 0
    3370:	44 ee       	ldi	r20, 0xE4	; 228
    3372:	50 e0       	ldi	r21, 0x00	; 0
			 *  \return The currently selected endpoint's direction, as a \c ENDPOINT_DIR_* mask.
			 */
			static inline uint8_t Endpoint_GetEndpointDirection(void) ATTR_WARN_UNUSED_RESULT ATTR_ALWAYS_INLINE;
			static inline uint8_t Endpoint_GetEndpointDirection(void)
			{
				return (UECFG0X & (1 << EPDIR)) ? ENDPOINT_DIR_IN : ENDPOINT_DIR_OUT;
    3374:	8c 91       	ld	r24, X
    3376:	80 fd       	sbrc	r24, 0
    3378:	21 c0       	rjmp	.+66     	; 0x33bc <Endpoint_WaitUntilReady+0x6a>
    337a:	24 c0       	rjmp	.+72     	; 0x33c4 <Endpoint_WaitUntilReady+0x72>
		{
			if (Endpoint_IsOUTReceived())
			  return ENDPOINT_READYWAIT_NoError;
		}

		uint8_t USB_DeviceState_LCL = USB_DeviceState;
    337c:	80 91 07 07 	lds	r24, 0x0707

		if (USB_DeviceState_LCL == DEVICE_STATE_Unattached)
    3380:	88 23       	and	r24, r24
    3382:	81 f0       	breq	.+32     	; 0x33a4 <Endpoint_WaitUntilReady+0x52>
		  return ENDPOINT_READYWAIT_DeviceDisconnected;
		else if (USB_DeviceState_LCL == DEVICE_STATE_Suspended)
    3384:	85 30       	cpi	r24, 0x05	; 5
    3386:	81 f0       	breq	.+32     	; 0x33a8 <Endpoint_WaitUntilReady+0x56>
			 *  \return Boolean \c true if the currently selected endpoint is stalled, \c false otherwise.
			 */
			static inline bool Endpoint_IsStalled(void) ATTR_WARN_UNUSED_RESULT ATTR_ALWAYS_INLINE;
			static inline bool Endpoint_IsStalled(void)
			{
				return ((UECONX & (1 << STALLRQ)) ? true : false);
    3388:	e8 01       	movw	r28, r16
    338a:	88 81       	ld	r24, Y
		  return ENDPOINT_READYWAIT_BusSuspended;
		else if (Endpoint_IsStalled())
    338c:	85 fd       	sbrc	r24, 5
    338e:	0e c0       	rjmp	.+28     	; 0x33ac <Endpoint_WaitUntilReady+0x5a>
    3390:	ea 01       	movw	r28, r20
    3392:	88 81       	ld	r24, Y
    3394:	99 81       	ldd	r25, Y+1	; 0x01
		  return ENDPOINT_READYWAIT_EndpointStalled;

		uint16_t CurrentFrameNumber = USB_Device_GetFrameNumber();

		if (CurrentFrameNumber != PreviousFrameNumber)
    3396:	28 17       	cp	r18, r24
    3398:	39 07       	cpc	r19, r25
    339a:	61 f3       	breq	.-40     	; 0x3374 <Endpoint_WaitUntilReady+0x22>
    339c:	61 50       	subi	r22, 0x01	; 1
		{
			PreviousFrameNumber = CurrentFrameNumber;

			if (!(TimeoutMSRem--))
    339e:	41 f0       	breq	.+16     	; 0x33b0 <Endpoint_WaitUntilReady+0x5e>
    33a0:	9c 01       	movw	r18, r24
    33a2:	e8 cf       	rjmp	.-48     	; 0x3374 <Endpoint_WaitUntilReady+0x22>
		}

		uint8_t USB_DeviceState_LCL = USB_DeviceState;

		if (USB_DeviceState_LCL == DEVICE_STATE_Unattached)
		  return ENDPOINT_READYWAIT_DeviceDisconnected;
    33a4:	82 e0       	ldi	r24, 0x02	; 2
    33a6:	12 c0       	rjmp	.+36     	; 0x33cc <Endpoint_WaitUntilReady+0x7a>
		else if (USB_DeviceState_LCL == DEVICE_STATE_Suspended)
		  return ENDPOINT_READYWAIT_BusSuspended;
    33a8:	83 e0       	ldi	r24, 0x03	; 3
    33aa:	10 c0       	rjmp	.+32     	; 0x33cc <Endpoint_WaitUntilReady+0x7a>
		else if (Endpoint_IsStalled())
		  return ENDPOINT_READYWAIT_EndpointStalled;
    33ac:	81 e0       	ldi	r24, 0x01	; 1
    33ae:	0e c0       	rjmp	.+28     	; 0x33cc <Endpoint_WaitUntilReady+0x7a>
		if (CurrentFrameNumber != PreviousFrameNumber)
		{
			PreviousFrameNumber = CurrentFrameNumber;

			if (!(TimeoutMSRem--))
			  return ENDPOINT_READYWAIT_Timeout;
    33b0:	84 e0       	ldi	r24, 0x04	; 4
    33b2:	0c c0       	rjmp	.+24     	; 0x33cc <Endpoint_WaitUntilReady+0x7a>
	for (;;)
	{
		if (Endpoint_GetEndpointDirection() == ENDPOINT_DIR_IN)
		{
			if (Endpoint_IsINReady())
			  return ENDPOINT_READYWAIT_NoError;
    33b4:	80 e0       	ldi	r24, 0x00	; 0
    33b6:	0a c0       	rjmp	.+20     	; 0x33cc <Endpoint_WaitUntilReady+0x7a>
		}
		else
		{
			if (Endpoint_IsOUTReceived())
			  return ENDPOINT_READYWAIT_NoError;
    33b8:	80 e0       	ldi	r24, 0x00	; 0
    33ba:	08 c0       	rjmp	.+16     	; 0x33cc <Endpoint_WaitUntilReady+0x7a>
			 *  \return Boolean \c true if the current endpoint is ready for an IN packet, \c false otherwise.
			 */
			static inline bool Endpoint_IsINReady(void) ATTR_WARN_UNUSED_RESULT ATTR_ALWAYS_INLINE;
			static inline bool Endpoint_IsINReady(void)
			{
				return ((UEINTX & (1 << TXINI)) ? true : false);
    33bc:	80 81       	ld	r24, Z

	for (;;)
	{
		if (Endpoint_GetEndpointDirection() == ENDPOINT_DIR_IN)
		{
			if (Endpoint_IsINReady())
    33be:	80 ff       	sbrs	r24, 0
    33c0:	dd cf       	rjmp	.-70     	; 0x337c <Endpoint_WaitUntilReady+0x2a>
    33c2:	f8 cf       	rjmp	.-16     	; 0x33b4 <Endpoint_WaitUntilReady+0x62>
			 *  \return Boolean \c true if current endpoint is has received an OUT packet, \c false otherwise.
			 */
			static inline bool Endpoint_IsOUTReceived(void) ATTR_WARN_UNUSED_RESULT ATTR_ALWAYS_INLINE;
			static inline bool Endpoint_IsOUTReceived(void)
			{
				return ((UEINTX & (1 << RXOUTI)) ? true : false);
    33c4:	80 81       	ld	r24, Z
			  return ENDPOINT_READYWAIT_NoError;
		}
		else
		{
			if (Endpoint_IsOUTReceived())
    33c6:	82 ff       	sbrs	r24, 2
    33c8:	d9 cf       	rjmp	.-78     	; 0x337c <Endpoint_WaitUntilReady+0x2a>
    33ca:	f6 cf       	rjmp	.-20     	; 0x33b8 <Endpoint_WaitUntilReady+0x66>

			if (!(TimeoutMSRem--))
			  return ENDPOINT_READYWAIT_Timeout;
		}
	}
}
    33cc:	df 91       	pop	r29
    33ce:	cf 91       	pop	r28
    33d0:	1f 91       	pop	r17
    33d2:	0f 91       	pop	r16
    33d4:	08 95       	ret

000033d6 <USB_ResetInterface>:

	USB_IsInitialized = false;
}

void USB_ResetInterface(void)
{
    33d6:	0f 93       	push	r16
    33d8:	1f 93       	push	r17
    33da:	cf 93       	push	r28
    33dc:	df 93       	push	r29
	#if defined(USB_CAN_BE_BOTH)
	bool UIDModeSelectEnabled = ((UHWCON & (1 << UIDE)) != 0);
	#endif

	USB_INT_DisableAllInterrupts();
    33de:	4c d0       	rcall	.+152    	; 0x3478 <USB_INT_DisableAllInterrupts>
	USB_INT_ClearAllInterrupts();
    33e0:	53 d0       	rcall	.+166    	; 0x3488 <USB_INT_ClearAllInterrupts>
			}

			static inline void USB_Controller_Reset(void) ATTR_ALWAYS_INLINE;
			static inline void USB_Controller_Reset(void)
			{
				USBCON &= ~(1 << USBE);
    33e2:	c8 ed       	ldi	r28, 0xD8	; 216
    33e4:	d0 e0       	ldi	r29, 0x00	; 0
    33e6:	88 81       	ld	r24, Y
    33e8:	8f 77       	andi	r24, 0x7F	; 127
    33ea:	88 83       	st	Y, r24
				USBCON |=  (1 << USBE);
    33ec:	88 81       	ld	r24, Y
    33ee:	80 68       	ori	r24, 0x80	; 128
    33f0:	88 83       	st	Y, r24
			}

			static inline void USB_CLK_Unfreeze(void) ATTR_ALWAYS_INLINE;
			static inline void USB_CLK_Unfreeze(void)
			{
				USBCON &= ~(1 << FRZCLK);
    33f2:	88 81       	ld	r24, Y
    33f4:	8f 7d       	andi	r24, 0xDF	; 223
    33f6:	88 83       	st	Y, r24
			}

			static inline void USB_PLL_Off(void) ATTR_ALWAYS_INLINE;
			static inline void USB_PLL_Off(void)
			{
				PLLCSR = 0;
    33f8:	19 bc       	out	0x29, r1	; 41
}

#if defined(USB_CAN_BE_DEVICE)
static void USB_Init_Device(void)
{
	USB_DeviceState                 = DEVICE_STATE_Unattached;
    33fa:	10 92 07 07 	sts	0x0707, r1
	USB_Device_ConfigurationNumber  = 0;
    33fe:	10 92 03 07 	sts	0x0703, r1

	#if !defined(NO_DEVICE_REMOTE_WAKEUP)
	USB_Device_RemoteWakeupEnabled  = false;
    3402:	10 92 05 07 	sts	0x0705, r1
	#endif

	#if !defined(NO_DEVICE_SELF_POWER)
	USB_Device_CurrentlySelfPowered = false;
    3406:	10 92 04 07 	sts	0x0704, r1
			}

			static inline void USB_Device_SetFullSpeed(void) ATTR_ALWAYS_INLINE;
			static inline void USB_Device_SetFullSpeed(void)
			{
				UDCON &= ~(1 << LSM);
    340a:	00 ee       	ldi	r16, 0xE0	; 224
    340c:	10 e0       	ldi	r17, 0x00	; 0
    340e:	f8 01       	movw	r30, r16
    3410:	80 81       	ld	r24, Z
    3412:	8b 7f       	andi	r24, 0xFB	; 251
    3414:	80 83       	st	Z, r24
			{
				switch (Interrupt)
				{
					#if (defined(USB_SERIES_4_AVR) || defined(USB_SERIES_6_AVR) || defined(USB_SERIES_7_AVR))
					case USB_INT_VBUSTI:
						USBCON |= (1 << VBUSTE);
    3416:	88 81       	ld	r24, Y
    3418:	81 60       	ori	r24, 0x01	; 1
    341a:	88 83       	st	Y, r24
				uint8_t Number = (Address & ENDPOINT_EPNUM_MASK);

				if (Number >= ENDPOINT_TOTAL_ENDPOINTS)
				  return false;

				return Endpoint_ConfigureEndpoint_Prv(Number,
    341c:	42 e0       	ldi	r20, 0x02	; 2
    341e:	60 e0       	ldi	r22, 0x00	; 0
    3420:	80 e0       	ldi	r24, 0x00	; 0
    3422:	b2 de       	rcall	.-668    	; 0x3188 <Endpoint_ConfigureEndpoint_Prv>
					#if defined(USB_CAN_BE_DEVICE)
					case USB_INT_WAKEUPI:
						UDINT  &= ~(1 << WAKEUPI);
						break;
					case USB_INT_SUSPI:
						UDINT  &= ~(1 << SUSPI);
    3424:	e1 ee       	ldi	r30, 0xE1	; 225
    3426:	f0 e0       	ldi	r31, 0x00	; 0
    3428:	80 81       	ld	r24, Z
    342a:	8e 7f       	andi	r24, 0xFE	; 254
    342c:	80 83       	st	Z, r24
					#if defined(USB_CAN_BE_DEVICE)
					case USB_INT_WAKEUPI:
						UDIEN  |= (1 << WAKEUPE);
						break;
					case USB_INT_SUSPI:
						UDIEN  |= (1 << SUSPE);
    342e:	e2 ee       	ldi	r30, 0xE2	; 226
    3430:	f0 e0       	ldi	r31, 0x00	; 0
    3432:	80 81       	ld	r24, Z
    3434:	81 60       	ori	r24, 0x01	; 1
    3436:	80 83       	st	Z, r24
						break;
					case USB_INT_EORSTI:
						UDIEN  |= (1 << EORSTE);
    3438:	80 81       	ld	r24, Z
    343a:	88 60       	ori	r24, 0x08	; 8
    343c:	80 83       	st	Z, r24
			 *  register and despite the datasheet making no mention of its requirement in host mode.
			 */
			static inline void USB_Attach(void) ATTR_ALWAYS_INLINE;
			static inline void USB_Attach(void)
			{
				UDCON  &= ~(1 << DETACH);
    343e:	f8 01       	movw	r30, r16
    3440:	80 81       	ld	r24, Z
    3442:	8e 7f       	andi	r24, 0xFE	; 254
    3444:	80 83       	st	Z, r24

			#if defined(USB_SERIES_4_AVR) || defined(USB_SERIES_6_AVR) || defined(USB_SERIES_7_AVR)
			static inline void USB_OTGPAD_On(void) ATTR_ALWAYS_INLINE;
			static inline void USB_OTGPAD_On(void)
			{
				USBCON |=  (1 << OTGPADE);
    3446:	88 81       	ld	r24, Y
    3448:	80 61       	ori	r24, 0x10	; 16
    344a:	88 83       	st	Y, r24
	}

	#if (defined(USB_SERIES_4_AVR) || defined(USB_SERIES_6_AVR) || defined(USB_SERIES_7_AVR))
	USB_OTGPAD_On();
	#endif
}
    344c:	df 91       	pop	r29
    344e:	cf 91       	pop	r28
    3450:	1f 91       	pop	r17
    3452:	0f 91       	pop	r16
    3454:	08 95       	ret

00003456 <USB_Init>:
			}

			static inline void USB_OTGPAD_Off(void) ATTR_ALWAYS_INLINE;
			static inline void USB_OTGPAD_Off(void)
			{
				USBCON &= ~(1 << OTGPADE);
    3456:	e8 ed       	ldi	r30, 0xD8	; 216
    3458:	f0 e0       	ldi	r31, 0x00	; 0
    345a:	80 81       	ld	r24, Z
    345c:	8f 7e       	andi	r24, 0xEF	; 239
    345e:	80 83       	st	Z, r24

			static inline void USB_REG_On(void) ATTR_ALWAYS_INLINE;
			static inline void USB_REG_On(void)
			{
			#if defined(USB_SERIES_4_AVR) || defined(USB_SERIES_6_AVR) || defined(USB_SERIES_7_AVR)
				UHWCON |=  (1 << UVREGE);
    3460:	e7 ed       	ldi	r30, 0xD7	; 215
    3462:	f0 e0       	ldi	r31, 0x00	; 0
    3464:	80 81       	ld	r24, Z
    3466:	81 60       	ori	r24, 0x01	; 1
    3468:	80 83       	st	Z, r24
	  USB_REG_Off();

	if (!(USB_Options & USB_OPT_MANUAL_PLL))
	{
		#if defined(USB_SERIES_4_AVR)
		PLLFRQ = (1 << PDIV2);
    346a:	84 e0       	ldi	r24, 0x04	; 4
    346c:	82 bf       	out	0x32, r24	; 50
		UHWCON &= ~(1 << UIDE);
		USB_CurrentMode = Mode;
	}
	#endif

	USB_IsInitialized = true;
    346e:	81 e0       	ldi	r24, 0x01	; 1
    3470:	80 93 06 07 	sts	0x0706, r24

	USB_ResetInterface();
    3474:	b0 cf       	rjmp	.-160    	; 0x33d6 <USB_ResetInterface>
    3476:	08 95       	ret

00003478 <USB_INT_DisableAllInterrupts>:
void USB_INT_DisableAllInterrupts(void)
{
	#if defined(USB_SERIES_6_AVR) || defined(USB_SERIES_7_AVR)
	USBCON &= ~((1 << VBUSTE) | (1 << IDTE));
	#elif defined(USB_SERIES_4_AVR)
	USBCON &= ~(1 << VBUSTE);
    3478:	e8 ed       	ldi	r30, 0xD8	; 216
    347a:	f0 e0       	ldi	r31, 0x00	; 0
    347c:	80 81       	ld	r24, Z
    347e:	8e 7f       	andi	r24, 0xFE	; 254
    3480:	80 83       	st	Z, r24
	#if defined(USB_CAN_BE_HOST)
	UHIEN   = 0;
	#endif

	#if defined(USB_CAN_BE_DEVICE)
	UDIEN   = 0;
    3482:	10 92 e2 00 	sts	0x00E2, r1
    3486:	08 95       	ret

00003488 <USB_INT_ClearAllInterrupts>:
}

void USB_INT_ClearAllInterrupts(void)
{
	#if defined(USB_SERIES_4_AVR) || defined(USB_SERIES_6_AVR) || defined(USB_SERIES_7_AVR)
	USBINT = 0;
    3488:	10 92 da 00 	sts	0x00DA, r1
	#if defined(USB_CAN_BE_HOST)
	UHINT  = 0;
	#endif

	#if defined(USB_CAN_BE_DEVICE)
	UDINT  = 0;
    348c:	10 92 e1 00 	sts	0x00E1, r1
    3490:	08 95       	ret

00003492 <__vector_10>:
	#endif
}

ISR(USB_GEN_vect, ISR_BLOCK)
{
    3492:	1f 92       	push	r1
    3494:	0f 92       	push	r0
    3496:	0f b6       	in	r0, 0x3f	; 63
    3498:	0f 92       	push	r0
    349a:	11 24       	eor	r1, r1
    349c:	2f 93       	push	r18
    349e:	3f 93       	push	r19
    34a0:	4f 93       	push	r20
    34a2:	5f 93       	push	r21
    34a4:	6f 93       	push	r22
    34a6:	7f 93       	push	r23
    34a8:	8f 93       	push	r24
    34aa:	9f 93       	push	r25
    34ac:	af 93       	push	r26
    34ae:	bf 93       	push	r27
    34b0:	ef 93       	push	r30
    34b2:	ff 93       	push	r31
					case USB_INT_SUSPI:
						return (UDINT  & (1 << SUSPI));
					case USB_INT_EORSTI:
						return (UDINT  & (1 << EORSTI));
					case USB_INT_SOFI:
						return (UDINT  & (1 << SOFI));
    34b4:	80 91 e1 00 	lds	r24, 0x00E1
	#if defined(USB_CAN_BE_DEVICE)
	#if !defined(NO_SOF_EVENTS)
	if (USB_INT_HasOccurred(USB_INT_SOFI) && USB_INT_IsEnabled(USB_INT_SOFI))
    34b8:	82 ff       	sbrs	r24, 2
    34ba:	0b c0       	rjmp	.+22     	; 0x34d2 <__vector_10+0x40>
					case USB_INT_SUSPI:
						return (UDIEN  & (1 << SUSPE));
					case USB_INT_EORSTI:
						return (UDIEN  & (1 << EORSTE));
					case USB_INT_SOFI:
						return (UDIEN  & (1 << SOFE));
    34bc:	80 91 e2 00 	lds	r24, 0x00E2
    34c0:	82 ff       	sbrs	r24, 2
    34c2:	07 c0       	rjmp	.+14     	; 0x34d2 <__vector_10+0x40>
						break;
					case USB_INT_EORSTI:
						UDINT  &= ~(1 << EORSTI);
						break;
					case USB_INT_SOFI:
						UDINT  &= ~(1 << SOFI);
    34c4:	e1 ee       	ldi	r30, 0xE1	; 225
    34c6:	f0 e0       	ldi	r31, 0x00	; 0
    34c8:	80 81       	ld	r24, Z
    34ca:	8b 7f       	andi	r24, 0xFB	; 251
    34cc:	80 83       	st	Z, r24
	{
		USB_INT_Clear(USB_INT_SOFI);

		EVENT_USB_Device_StartOfFrame();
    34ce:	0e 94 29 0d 	call	0x1a52	; 0x1a52 <EVENT_USB_Device_StartOfFrame>
			{
				switch (Interrupt)
				{
					#if (defined(USB_SERIES_4_AVR) || defined(USB_SERIES_6_AVR) || defined(USB_SERIES_7_AVR))
					case USB_INT_VBUSTI:
						return (USBINT & (1 << VBUSTI));
    34d2:	80 91 da 00 	lds	r24, 0x00DA
	}
	#endif

	#if defined(USB_SERIES_4_AVR) || defined(USB_SERIES_6_AVR) || defined(USB_SERIES_7_AVR)
	if (USB_INT_HasOccurred(USB_INT_VBUSTI) && USB_INT_IsEnabled(USB_INT_VBUSTI))
    34d6:	80 ff       	sbrs	r24, 0
    34d8:	1f c0       	rjmp	.+62     	; 0x3518 <__vector_10+0x86>
			{
				switch (Interrupt)
				{
					#if (defined(USB_SERIES_4_AVR) || defined(USB_SERIES_6_AVR) || defined(USB_SERIES_7_AVR))
					case USB_INT_VBUSTI:
						return (USBCON & (1 << VBUSTE));
    34da:	80 91 d8 00 	lds	r24, 0x00D8
    34de:	80 ff       	sbrs	r24, 0
    34e0:	1b c0       	rjmp	.+54     	; 0x3518 <__vector_10+0x86>
			{
				switch (Interrupt)
				{
					#if (defined(USB_SERIES_4_AVR) || defined(USB_SERIES_6_AVR) || defined(USB_SERIES_7_AVR))
					case USB_INT_VBUSTI:
						USBINT &= ~(1 << VBUSTI);
    34e2:	ea ed       	ldi	r30, 0xDA	; 218
    34e4:	f0 e0       	ldi	r31, 0x00	; 0
    34e6:	80 81       	ld	r24, Z
    34e8:	8e 7f       	andi	r24, 0xFE	; 254
    34ea:	80 83       	st	Z, r24
				 *  \return Boolean \c true if the VBUS line is currently detecting power from a host, \c false otherwise.
				 */
				static inline bool USB_VBUS_GetStatus(void) ATTR_WARN_UNUSED_RESULT ATTR_ALWAYS_INLINE;
				static inline bool USB_VBUS_GetStatus(void)
				{
					return ((USBSTA & (1 << VBUS)) ? true : false);
    34ec:	80 91 d9 00 	lds	r24, 0x00D9
	{
		USB_INT_Clear(USB_INT_VBUSTI);

		if (USB_VBUS_GetStatus())
    34f0:	80 ff       	sbrs	r24, 0
    34f2:	0d c0       	rjmp	.+26     	; 0x350e <__vector_10+0x7c>

		/* Inline Functions: */
			static inline void USB_PLL_On(void) ATTR_ALWAYS_INLINE;
			static inline void USB_PLL_On(void)
			{
				PLLCSR = USB_PLL_PSC;
    34f4:	80 e1       	ldi	r24, 0x10	; 16
    34f6:	89 bd       	out	0x29, r24	; 41
				PLLCSR = (USB_PLL_PSC | (1 << PLLE));
    34f8:	82 e1       	ldi	r24, 0x12	; 18
    34fa:	89 bd       	out	0x29, r24	; 41
		{
			if (!(USB_Options & USB_OPT_MANUAL_PLL))
			{
				USB_PLL_On();
				while (!(USB_PLL_IsReady()));
    34fc:	09 b4       	in	r0, 0x29	; 41
    34fe:	00 fe       	sbrs	r0, 0
    3500:	fd cf       	rjmp	.-6      	; 0x34fc <__vector_10+0x6a>
			}

			USB_DeviceState = DEVICE_STATE_Powered;
    3502:	81 e0       	ldi	r24, 0x01	; 1
    3504:	80 93 07 07 	sts	0x0707, r24
			EVENT_USB_Device_Connect();
    3508:	0e 94 1c 0d 	call	0x1a38	; 0x1a38 <EVENT_USB_Device_Connect>
    350c:	05 c0       	rjmp	.+10     	; 0x3518 <__vector_10+0x86>
			}

			static inline void USB_PLL_Off(void) ATTR_ALWAYS_INLINE;
			static inline void USB_PLL_Off(void)
			{
				PLLCSR = 0;
    350e:	19 bc       	out	0x29, r1	; 41
		else
		{
			if (!(USB_Options & USB_OPT_MANUAL_PLL))
			  USB_PLL_Off();

			USB_DeviceState = DEVICE_STATE_Unattached;
    3510:	10 92 07 07 	sts	0x0707, r1
			EVENT_USB_Device_Disconnect();
    3514:	0e 94 1d 0d 	call	0x1a3a	; 0x1a3a <EVENT_USB_Device_Disconnect>
					#endif
					#if defined(USB_CAN_BE_DEVICE)
					case USB_INT_WAKEUPI:
						return (UDINT  & (1 << WAKEUPI));
					case USB_INT_SUSPI:
						return (UDINT  & (1 << SUSPI));
    3518:	80 91 e1 00 	lds	r24, 0x00E1
		}
	}
	#endif

	if (USB_INT_HasOccurred(USB_INT_SUSPI) && USB_INT_IsEnabled(USB_INT_SUSPI))
    351c:	80 ff       	sbrs	r24, 0
    351e:	16 c0       	rjmp	.+44     	; 0x354c <__vector_10+0xba>
					#endif
					#if defined(USB_CAN_BE_DEVICE)
					case USB_INT_WAKEUPI:
						return (UDIEN  & (1 << WAKEUPE));
					case USB_INT_SUSPI:
						return (UDIEN  & (1 << SUSPE));
    3520:	80 91 e2 00 	lds	r24, 0x00E2
    3524:	80 ff       	sbrs	r24, 0
    3526:	12 c0       	rjmp	.+36     	; 0x354c <__vector_10+0xba>
					#if defined(USB_CAN_BE_DEVICE)
					case USB_INT_WAKEUPI:
						UDIEN  &= ~(1 << WAKEUPE);
						break;
					case USB_INT_SUSPI:
						UDIEN  &= ~(1 << SUSPE);
    3528:	e2 ee       	ldi	r30, 0xE2	; 226
    352a:	f0 e0       	ldi	r31, 0x00	; 0
    352c:	80 81       	ld	r24, Z
    352e:	8e 7f       	andi	r24, 0xFE	; 254
    3530:	80 83       	st	Z, r24
						USBCON |= (1 << IDTE);
						break;
					#endif
					#if defined(USB_CAN_BE_DEVICE)
					case USB_INT_WAKEUPI:
						UDIEN  |= (1 << WAKEUPE);
    3532:	80 81       	ld	r24, Z
    3534:	80 61       	ori	r24, 0x10	; 16
    3536:	80 83       	st	Z, r24
			#endif

			static inline void USB_CLK_Freeze(void) ATTR_ALWAYS_INLINE;
			static inline void USB_CLK_Freeze(void)
			{
				USBCON |=  (1 << FRZCLK);
    3538:	e8 ed       	ldi	r30, 0xD8	; 216
    353a:	f0 e0       	ldi	r31, 0x00	; 0
    353c:	80 81       	ld	r24, Z
    353e:	80 62       	ori	r24, 0x20	; 32
    3540:	80 83       	st	Z, r24
			}

			static inline void USB_PLL_Off(void) ATTR_ALWAYS_INLINE;
			static inline void USB_PLL_Off(void)
			{
				PLLCSR = 0;
    3542:	19 bc       	out	0x29, r1	; 41

		#if defined(USB_SERIES_2_AVR) && !defined(NO_LIMITED_CONTROLLER_CONNECT)
		USB_DeviceState = DEVICE_STATE_Unattached;
		EVENT_USB_Device_Disconnect();
		#else
		USB_DeviceState = DEVICE_STATE_Suspended;
    3544:	85 e0       	ldi	r24, 0x05	; 5
    3546:	80 93 07 07 	sts	0x0707, r24
		EVENT_USB_Device_Suspend();
    354a:	d5 d1       	rcall	.+938    	; 0x38f6 <USB_Event_Stub>
					case USB_INT_IDTI:
						return (USBINT & (1 << IDTI));
					#endif
					#if defined(USB_CAN_BE_DEVICE)
					case USB_INT_WAKEUPI:
						return (UDINT  & (1 << WAKEUPI));
    354c:	80 91 e1 00 	lds	r24, 0x00E1
		#endif
	}

	if (USB_INT_HasOccurred(USB_INT_WAKEUPI) && USB_INT_IsEnabled(USB_INT_WAKEUPI))
    3550:	84 ff       	sbrs	r24, 4
    3552:	2f c0       	rjmp	.+94     	; 0x35b2 <__vector_10+0x120>
					case USB_INT_IDTI:
						return (USBCON & (1 << IDTE));
					#endif
					#if defined(USB_CAN_BE_DEVICE)
					case USB_INT_WAKEUPI:
						return (UDIEN  & (1 << WAKEUPE));
    3554:	80 91 e2 00 	lds	r24, 0x00E2
    3558:	84 ff       	sbrs	r24, 4
    355a:	2b c0       	rjmp	.+86     	; 0x35b2 <__vector_10+0x120>

		/* Inline Functions: */
			static inline void USB_PLL_On(void) ATTR_ALWAYS_INLINE;
			static inline void USB_PLL_On(void)
			{
				PLLCSR = USB_PLL_PSC;
    355c:	80 e1       	ldi	r24, 0x10	; 16
    355e:	89 bd       	out	0x29, r24	; 41
				PLLCSR = (USB_PLL_PSC | (1 << PLLE));
    3560:	82 e1       	ldi	r24, 0x12	; 18
    3562:	89 bd       	out	0x29, r24	; 41
	{
		if (!(USB_Options & USB_OPT_MANUAL_PLL))
		{
			USB_PLL_On();
			while (!(USB_PLL_IsReady()));
    3564:	09 b4       	in	r0, 0x29	; 41
    3566:	00 fe       	sbrs	r0, 0
    3568:	fd cf       	rjmp	.-6      	; 0x3564 <__vector_10+0xd2>
			}

			static inline void USB_CLK_Unfreeze(void) ATTR_ALWAYS_INLINE;
			static inline void USB_CLK_Unfreeze(void)
			{
				USBCON &= ~(1 << FRZCLK);
    356a:	e8 ed       	ldi	r30, 0xD8	; 216
    356c:	f0 e0       	ldi	r31, 0x00	; 0
    356e:	80 81       	ld	r24, Z
    3570:	8f 7d       	andi	r24, 0xDF	; 223
    3572:	80 83       	st	Z, r24
						USBINT &= ~(1 << IDTI);
						break;
					#endif
					#if defined(USB_CAN_BE_DEVICE)
					case USB_INT_WAKEUPI:
						UDINT  &= ~(1 << WAKEUPI);
    3574:	e1 ee       	ldi	r30, 0xE1	; 225
    3576:	f0 e0       	ldi	r31, 0x00	; 0
    3578:	80 81       	ld	r24, Z
    357a:	8f 7e       	andi	r24, 0xEF	; 239
    357c:	80 83       	st	Z, r24
						USBCON &= ~(1 << IDTE);
						break;
					#endif
					#if defined(USB_CAN_BE_DEVICE)
					case USB_INT_WAKEUPI:
						UDIEN  &= ~(1 << WAKEUPE);
    357e:	e2 ee       	ldi	r30, 0xE2	; 226
    3580:	f0 e0       	ldi	r31, 0x00	; 0
    3582:	80 81       	ld	r24, Z
    3584:	8f 7e       	andi	r24, 0xEF	; 239
    3586:	80 83       	st	Z, r24
					#if defined(USB_CAN_BE_DEVICE)
					case USB_INT_WAKEUPI:
						UDIEN  |= (1 << WAKEUPE);
						break;
					case USB_INT_SUSPI:
						UDIEN  |= (1 << SUSPE);
    3588:	80 81       	ld	r24, Z
    358a:	81 60       	ori	r24, 0x01	; 1
    358c:	80 83       	st	Z, r24
		USB_INT_Clear(USB_INT_WAKEUPI);

		USB_INT_Disable(USB_INT_WAKEUPI);
		USB_INT_Enable(USB_INT_SUSPI);

		if (USB_Device_ConfigurationNumber)
    358e:	80 91 03 07 	lds	r24, 0x0703
    3592:	88 23       	and	r24, r24
    3594:	21 f0       	breq	.+8      	; 0x359e <__vector_10+0x10c>
		  USB_DeviceState = DEVICE_STATE_Configured;
    3596:	84 e0       	ldi	r24, 0x04	; 4
    3598:	80 93 07 07 	sts	0x0707, r24
    359c:	09 c0       	rjmp	.+18     	; 0x35b0 <__vector_10+0x11e>
			}

			static inline bool USB_Device_IsAddressSet(void) ATTR_ALWAYS_INLINE ATTR_WARN_UNUSED_RESULT;
			static inline bool USB_Device_IsAddressSet(void)
			{
				return (UDADDR & (1 << ADDEN));
    359e:	80 91 e3 00 	lds	r24, 0x00E3
		else
		  USB_DeviceState = (USB_Device_IsAddressSet()) ? DEVICE_STATE_Addressed : DEVICE_STATE_Powered;
    35a2:	88 23       	and	r24, r24
    35a4:	14 f4       	brge	.+4      	; 0x35aa <__vector_10+0x118>
    35a6:	83 e0       	ldi	r24, 0x03	; 3
    35a8:	01 c0       	rjmp	.+2      	; 0x35ac <__vector_10+0x11a>
    35aa:	81 e0       	ldi	r24, 0x01	; 1
    35ac:	80 93 07 07 	sts	0x0707, r24

		#if defined(USB_SERIES_2_AVR) && !defined(NO_LIMITED_CONTROLLER_CONNECT)
		EVENT_USB_Device_Connect();
		#else
		EVENT_USB_Device_WakeUp();
    35b0:	a2 d1       	rcall	.+836    	; 0x38f6 <USB_Event_Stub>
					case USB_INT_WAKEUPI:
						return (UDINT  & (1 << WAKEUPI));
					case USB_INT_SUSPI:
						return (UDINT  & (1 << SUSPI));
					case USB_INT_EORSTI:
						return (UDINT  & (1 << EORSTI));
    35b2:	80 91 e1 00 	lds	r24, 0x00E1
		#endif
	}

	if (USB_INT_HasOccurred(USB_INT_EORSTI) && USB_INT_IsEnabled(USB_INT_EORSTI))
    35b6:	83 ff       	sbrs	r24, 3
    35b8:	1e c0       	rjmp	.+60     	; 0x35f6 <__vector_10+0x164>
					case USB_INT_WAKEUPI:
						return (UDIEN  & (1 << WAKEUPE));
					case USB_INT_SUSPI:
						return (UDIEN  & (1 << SUSPE));
					case USB_INT_EORSTI:
						return (UDIEN  & (1 << EORSTE));
    35ba:	80 91 e2 00 	lds	r24, 0x00E2
    35be:	83 ff       	sbrs	r24, 3
    35c0:	1a c0       	rjmp	.+52     	; 0x35f6 <__vector_10+0x164>
						break;
					case USB_INT_SUSPI:
						UDINT  &= ~(1 << SUSPI);
						break;
					case USB_INT_EORSTI:
						UDINT  &= ~(1 << EORSTI);
    35c2:	e1 ee       	ldi	r30, 0xE1	; 225
    35c4:	f0 e0       	ldi	r31, 0x00	; 0
    35c6:	80 81       	ld	r24, Z
    35c8:	87 7f       	andi	r24, 0xF7	; 247
    35ca:	80 83       	st	Z, r24
	{
		USB_INT_Clear(USB_INT_EORSTI);

		USB_DeviceState                = DEVICE_STATE_Default;
    35cc:	82 e0       	ldi	r24, 0x02	; 2
    35ce:	80 93 07 07 	sts	0x0707, r24
		USB_Device_ConfigurationNumber = 0;
    35d2:	10 92 03 07 	sts	0x0703, r1
					#if defined(USB_CAN_BE_DEVICE)
					case USB_INT_WAKEUPI:
						UDINT  &= ~(1 << WAKEUPI);
						break;
					case USB_INT_SUSPI:
						UDINT  &= ~(1 << SUSPI);
    35d6:	80 81       	ld	r24, Z
    35d8:	8e 7f       	andi	r24, 0xFE	; 254
    35da:	80 83       	st	Z, r24
					#if defined(USB_CAN_BE_DEVICE)
					case USB_INT_WAKEUPI:
						UDIEN  &= ~(1 << WAKEUPE);
						break;
					case USB_INT_SUSPI:
						UDIEN  &= ~(1 << SUSPE);
    35dc:	e2 ee       	ldi	r30, 0xE2	; 226
    35de:	f0 e0       	ldi	r31, 0x00	; 0
    35e0:	80 81       	ld	r24, Z
    35e2:	8e 7f       	andi	r24, 0xFE	; 254
    35e4:	80 83       	st	Z, r24
						USBCON |= (1 << IDTE);
						break;
					#endif
					#if defined(USB_CAN_BE_DEVICE)
					case USB_INT_WAKEUPI:
						UDIEN  |= (1 << WAKEUPE);
    35e6:	80 81       	ld	r24, Z
    35e8:	80 61       	ori	r24, 0x10	; 16
    35ea:	80 83       	st	Z, r24
				uint8_t Number = (Address & ENDPOINT_EPNUM_MASK);

				if (Number >= ENDPOINT_TOTAL_ENDPOINTS)
				  return false;

				return Endpoint_ConfigureEndpoint_Prv(Number,
    35ec:	42 e0       	ldi	r20, 0x02	; 2
    35ee:	60 e0       	ldi	r22, 0x00	; 0
    35f0:	80 e0       	ldi	r24, 0x00	; 0
    35f2:	ca dd       	rcall	.-1132   	; 0x3188 <Endpoint_ConfigureEndpoint_Prv>

		#if defined(INTERRUPT_CONTROL_ENDPOINT)
		USB_INT_Enable(USB_INT_RXSTPI);
		#endif

		EVENT_USB_Device_Reset();
    35f4:	80 d1       	rcall	.+768    	; 0x38f6 <USB_Event_Stub>
		USB_ResetInterface();

		EVENT_USB_UIDChange();
	}
	#endif
}
    35f6:	ff 91       	pop	r31
    35f8:	ef 91       	pop	r30
    35fa:	bf 91       	pop	r27
    35fc:	af 91       	pop	r26
    35fe:	9f 91       	pop	r25
    3600:	8f 91       	pop	r24
    3602:	7f 91       	pop	r23
    3604:	6f 91       	pop	r22
    3606:	5f 91       	pop	r21
    3608:	4f 91       	pop	r20
    360a:	3f 91       	pop	r19
    360c:	2f 91       	pop	r18
    360e:	0f 90       	pop	r0
    3610:	0f be       	out	0x3f, r0	; 63
    3612:	0f 90       	pop	r0
    3614:	1f 90       	pop	r1
    3616:	18 95       	reti

00003618 <USB_Device_ProcessControlRequest>:
#if !defined(NO_DEVICE_REMOTE_WAKEUP)
bool    USB_Device_RemoteWakeupEnabled;
#endif

void USB_Device_ProcessControlRequest(void)
{
    3618:	0f 93       	push	r16
    361a:	1f 93       	push	r17
    361c:	cf 93       	push	r28
    361e:	df 93       	push	r29
    3620:	cd b7       	in	r28, 0x3d	; 61
    3622:	de b7       	in	r29, 0x3e	; 62
    3624:	aa 97       	sbiw	r28, 0x2a	; 42
    3626:	0f b6       	in	r0, 0x3f	; 63
    3628:	f8 94       	cli
    362a:	de bf       	out	0x3e, r29	; 62
    362c:	0f be       	out	0x3f, r0	; 63
    362e:	cd bf       	out	0x3d, r28	; 61
    3630:	e8 e0       	ldi	r30, 0x08	; 8
    3632:	f7 e0       	ldi	r31, 0x07	; 7
    3634:	80 e1       	ldi	r24, 0x10	; 16
    3636:	97 e0       	ldi	r25, 0x07	; 7
			 *  \return Next byte in the currently selected endpoint's FIFO buffer.
			 */
			static inline uint8_t Endpoint_Read_8(void) ATTR_WARN_UNUSED_RESULT ATTR_ALWAYS_INLINE;
			static inline uint8_t Endpoint_Read_8(void)
			{
				return UEDATX;
    3638:	a1 ef       	ldi	r26, 0xF1	; 241
    363a:	b0 e0       	ldi	r27, 0x00	; 0
    363c:	2c 91       	ld	r18, X
	USB_ControlRequest.wLength       = Endpoint_Read_16_LE();
	#else
	uint8_t* RequestHeader = (uint8_t*)&USB_ControlRequest;

	for (uint8_t RequestHeaderByte = 0; RequestHeaderByte < sizeof(USB_Request_Header_t); RequestHeaderByte++)
	  *(RequestHeader++) = Endpoint_Read_8();
    363e:	21 93       	st	Z+, r18
	USB_ControlRequest.wIndex        = Endpoint_Read_16_LE();
	USB_ControlRequest.wLength       = Endpoint_Read_16_LE();
	#else
	uint8_t* RequestHeader = (uint8_t*)&USB_ControlRequest;

	for (uint8_t RequestHeaderByte = 0; RequestHeaderByte < sizeof(USB_Request_Header_t); RequestHeaderByte++)
    3640:	e8 17       	cp	r30, r24
    3642:	f9 07       	cpc	r31, r25
    3644:	d9 f7       	brne	.-10     	; 0x363c <USB_Device_ProcessControlRequest+0x24>
	  *(RequestHeader++) = Endpoint_Read_8();
	#endif

	EVENT_USB_Device_ControlRequest();
    3646:	0e 94 28 0d 	call	0x1a50	; 0x1a50 <EVENT_USB_Device_ControlRequest>
			 *  \return Boolean \c true if the selected endpoint has received a SETUP packet, \c false otherwise.
			 */
			static inline bool Endpoint_IsSETUPReceived(void) ATTR_WARN_UNUSED_RESULT ATTR_ALWAYS_INLINE;
			static inline bool Endpoint_IsSETUPReceived(void)
			{
				return ((UEINTX & (1 << RXSTPI)) ? true : false);
    364a:	80 91 e8 00 	lds	r24, 0x00E8

	if (Endpoint_IsSETUPReceived())
    364e:	83 ff       	sbrs	r24, 3
    3650:	2d c1       	rjmp	.+602    	; 0x38ac <USB_Device_ProcessControlRequest+0x294>
	{
		uint8_t bmRequestType = USB_ControlRequest.bmRequestType;
    3652:	90 91 08 07 	lds	r25, 0x0708

		switch (USB_ControlRequest.bRequest)
    3656:	80 91 09 07 	lds	r24, 0x0709
    365a:	85 30       	cpi	r24, 0x05	; 5
    365c:	09 f4       	brne	.+2      	; 0x3660 <USB_Device_ProcessControlRequest+0x48>
    365e:	78 c0       	rjmp	.+240    	; 0x3750 <USB_Device_ProcessControlRequest+0x138>
    3660:	30 f4       	brcc	.+12     	; 0x366e <USB_Device_ProcessControlRequest+0x56>
    3662:	81 30       	cpi	r24, 0x01	; 1
    3664:	b1 f1       	breq	.+108    	; 0x36d2 <USB_Device_ProcessControlRequest+0xba>
    3666:	68 f0       	brcs	.+26     	; 0x3682 <USB_Device_ProcessControlRequest+0x6a>
    3668:	83 30       	cpi	r24, 0x03	; 3
    366a:	99 f1       	breq	.+102    	; 0x36d2 <USB_Device_ProcessControlRequest+0xba>
    366c:	1f c1       	rjmp	.+574    	; 0x38ac <USB_Device_ProcessControlRequest+0x294>
    366e:	88 30       	cpi	r24, 0x08	; 8
    3670:	09 f4       	brne	.+2      	; 0x3674 <USB_Device_ProcessControlRequest+0x5c>
    3672:	e9 c0       	rjmp	.+466    	; 0x3846 <USB_Device_ProcessControlRequest+0x22e>
    3674:	89 30       	cpi	r24, 0x09	; 9
    3676:	09 f4       	brne	.+2      	; 0x367a <USB_Device_ProcessControlRequest+0x62>
    3678:	f6 c0       	rjmp	.+492    	; 0x3866 <USB_Device_ProcessControlRequest+0x24e>
    367a:	86 30       	cpi	r24, 0x06	; 6
    367c:	09 f0       	breq	.+2      	; 0x3680 <USB_Device_ProcessControlRequest+0x68>
    367e:	16 c1       	rjmp	.+556    	; 0x38ac <USB_Device_ProcessControlRequest+0x294>
    3680:	8a c0       	rjmp	.+276    	; 0x3796 <USB_Device_ProcessControlRequest+0x17e>
		{
			case REQ_GetStatus:
				if ((bmRequestType == (REQDIR_DEVICETOHOST | REQTYPE_STANDARD | REQREC_DEVICE)) ||
    3682:	90 38       	cpi	r25, 0x80	; 128
    3684:	21 f0       	breq	.+8      	; 0x368e <USB_Device_ProcessControlRequest+0x76>
    3686:	92 38       	cpi	r25, 0x82	; 130
    3688:	09 f0       	breq	.+2      	; 0x368c <USB_Device_ProcessControlRequest+0x74>
    368a:	10 c1       	rjmp	.+544    	; 0x38ac <USB_Device_ProcessControlRequest+0x294>
    368c:	08 c0       	rjmp	.+16     	; 0x369e <USB_Device_ProcessControlRequest+0x86>
	Endpoint_ClearOUT();
}

static void USB_Device_GetStatus(void)
{
	uint8_t CurrentStatus = 0;
    368e:	80 91 04 07 	lds	r24, 0x0704
			if (USB_Device_CurrentlySelfPowered)
			  CurrentStatus |= FEATURE_SELFPOWERED_ENABLED;
			#endif

			#if !defined(NO_DEVICE_REMOTE_WAKEUP)
			if (USB_Device_RemoteWakeupEnabled)
    3692:	90 91 05 07 	lds	r25, 0x0705
    3696:	99 23       	and	r25, r25
    3698:	71 f0       	breq	.+28     	; 0x36b6 <USB_Device_ProcessControlRequest+0x9e>
			  CurrentStatus |= FEATURE_REMOTE_WAKEUP_ENABLED;
    369a:	82 60       	ori	r24, 0x02	; 2
    369c:	0c c0       	rjmp	.+24     	; 0x36b6 <USB_Device_ProcessControlRequest+0x9e>
			 */
			static inline void Endpoint_SelectEndpoint(const uint8_t Address) ATTR_ALWAYS_INLINE;
			static inline void Endpoint_SelectEndpoint(const uint8_t Address)
			{
				#if !defined(CONTROL_ONLY_DEVICE)
					UENUM = (Address & ENDPOINT_EPNUM_MASK);
    369e:	80 91 0c 07 	lds	r24, 0x070C
    36a2:	8f 70       	andi	r24, 0x0F	; 15
    36a4:	e9 ee       	ldi	r30, 0xE9	; 233
    36a6:	f0 e0       	ldi	r31, 0x00	; 0
    36a8:	80 83       	st	Z, r24
			 *  \return Boolean \c true if the currently selected endpoint is stalled, \c false otherwise.
			 */
			static inline bool Endpoint_IsStalled(void) ATTR_WARN_UNUSED_RESULT ATTR_ALWAYS_INLINE;
			static inline bool Endpoint_IsStalled(void)
			{
				return ((UECONX & (1 << STALLRQ)) ? true : false);
    36aa:	80 91 eb 00 	lds	r24, 0x00EB
    36ae:	85 fb       	bst	r24, 5
    36b0:	88 27       	eor	r24, r24
    36b2:	80 f9       	bld	r24, 0
			 */
			static inline void Endpoint_SelectEndpoint(const uint8_t Address) ATTR_ALWAYS_INLINE;
			static inline void Endpoint_SelectEndpoint(const uint8_t Address)
			{
				#if !defined(CONTROL_ONLY_DEVICE)
					UENUM = (Address & ENDPOINT_EPNUM_MASK);
    36b4:	10 82       	st	Z, r1
			 *  \note This is not applicable for non CONTROL type endpoints.
			 */
			static inline void Endpoint_ClearSETUP(void) ATTR_ALWAYS_INLINE;
			static inline void Endpoint_ClearSETUP(void)
			{
				UEINTX &= ~(1 << RXSTPI);
    36b6:	e8 ee       	ldi	r30, 0xE8	; 232
    36b8:	f0 e0       	ldi	r31, 0x00	; 0
    36ba:	90 81       	ld	r25, Z
    36bc:	97 7f       	andi	r25, 0xF7	; 247
    36be:	90 83       	st	Z, r25
			 *  \param[in] Data  Data to write to the currently selected endpoint's FIFO buffer.
			 */
			static inline void Endpoint_Write_16_LE(const uint16_t Data) ATTR_ALWAYS_INLINE;
			static inline void Endpoint_Write_16_LE(const uint16_t Data)
			{
				UEDATX = (Data & 0xFF);
    36c0:	a1 ef       	ldi	r26, 0xF1	; 241
    36c2:	b0 e0       	ldi	r27, 0x00	; 0
    36c4:	8c 93       	st	X, r24
				UEDATX = (Data >> 8);
    36c6:	1c 92       	st	X, r1
			 */
			static inline void Endpoint_ClearIN(void) ATTR_ALWAYS_INLINE;
			static inline void Endpoint_ClearIN(void)
			{
				#if !defined(CONTROL_ONLY_DEVICE)
					UEINTX &= ~((1 << TXINI) | (1 << FIFOCON));
    36c8:	80 81       	ld	r24, Z
    36ca:	8e 77       	andi	r24, 0x7E	; 126
    36cc:	80 83       	st	Z, r24
	Endpoint_ClearSETUP();

	Endpoint_Write_16_LE(CurrentStatus);
	Endpoint_ClearIN();

	Endpoint_ClearStatusStage();
    36ce:	1d de       	rcall	.-966    	; 0x330a <Endpoint_ClearStatusStage>
    36d0:	ed c0       	rjmp	.+474    	; 0x38ac <USB_Device_ProcessControlRequest+0x294>
				}

				break;
			case REQ_ClearFeature:
			case REQ_SetFeature:
				if ((bmRequestType == (REQDIR_HOSTTODEVICE | REQTYPE_STANDARD | REQREC_DEVICE)) ||
    36d2:	99 23       	and	r25, r25
    36d4:	09 f4       	brne	.+2      	; 0x36d8 <USB_Device_ProcessControlRequest+0xc0>
    36d6:	f9 c0       	rjmp	.+498    	; 0x38ca <USB_Device_ProcessControlRequest+0x2b2>
    36d8:	92 30       	cpi	r25, 0x02	; 2
    36da:	09 f0       	breq	.+2      	; 0x36de <USB_Device_ProcessControlRequest+0xc6>
    36dc:	e7 c0       	rjmp	.+462    	; 0x38ac <USB_Device_ProcessControlRequest+0x294>
    36de:	fa c0       	rjmp	.+500    	; 0x38d4 <USB_Device_ProcessControlRequest+0x2bc>
	switch (USB_ControlRequest.bmRequestType & CONTROL_REQTYPE_RECIPIENT)
	{
		#if !defined(NO_DEVICE_REMOTE_WAKEUP)
		case REQREC_DEVICE:
			if ((uint8_t)USB_ControlRequest.wValue == FEATURE_SEL_DeviceRemoteWakeup)
			  USB_Device_RemoteWakeupEnabled = (USB_ControlRequest.bRequest == REQ_SetFeature);
    36e0:	91 e0       	ldi	r25, 0x01	; 1
    36e2:	83 30       	cpi	r24, 0x03	; 3
    36e4:	09 f0       	breq	.+2      	; 0x36e8 <USB_Device_ProcessControlRequest+0xd0>
    36e6:	90 e0       	ldi	r25, 0x00	; 0
    36e8:	90 93 05 07 	sts	0x0705, r25
    36ec:	28 c0       	rjmp	.+80     	; 0x373e <USB_Device_ProcessControlRequest+0x126>
		#endif
		#if !defined(CONTROL_ONLY_DEVICE)
		case REQREC_ENDPOINT:
			if ((uint8_t)USB_ControlRequest.wValue == FEATURE_SEL_EndpointHalt)
			{
				uint8_t EndpointIndex = ((uint8_t)USB_ControlRequest.wIndex & ENDPOINT_EPNUM_MASK);
    36ee:	20 91 0c 07 	lds	r18, 0x070C
    36f2:	2f 70       	andi	r18, 0x0F	; 15

				if (EndpointIndex == ENDPOINT_CONTROLEP)
    36f4:	09 f4       	brne	.+2      	; 0x36f8 <USB_Device_ProcessControlRequest+0xe0>
    36f6:	da c0       	rjmp	.+436    	; 0x38ac <USB_Device_ProcessControlRequest+0x294>
			 */
			static inline void Endpoint_SelectEndpoint(const uint8_t Address) ATTR_ALWAYS_INLINE;
			static inline void Endpoint_SelectEndpoint(const uint8_t Address)
			{
				#if !defined(CONTROL_ONLY_DEVICE)
					UENUM = (Address & ENDPOINT_EPNUM_MASK);
    36f8:	20 93 e9 00 	sts	0x00E9, r18
			 * \return Boolean \c true if the currently selected endpoint is enabled, \c false otherwise.
			 */
			static inline bool Endpoint_IsEnabled(void) ATTR_WARN_UNUSED_RESULT ATTR_ALWAYS_INLINE;
			static inline bool Endpoint_IsEnabled(void)
			{
				return ((UECONX & (1 << EPEN)) ? true : false);
    36fc:	80 91 eb 00 	lds	r24, 0x00EB
				  return;

				Endpoint_SelectEndpoint(EndpointIndex);

				if (Endpoint_IsEnabled())
    3700:	80 ff       	sbrs	r24, 0
    3702:	1d c0       	rjmp	.+58     	; 0x373e <USB_Device_ProcessControlRequest+0x126>
				{
					if (USB_ControlRequest.bRequest == REQ_SetFeature)
    3704:	80 91 09 07 	lds	r24, 0x0709
    3708:	83 30       	cpi	r24, 0x03	; 3
    370a:	31 f4       	brne	.+12     	; 0x3718 <USB_Device_ProcessControlRequest+0x100>
			 *  \ingroup Group_EndpointPacketManagement_AVR8
			 */
			static inline void Endpoint_StallTransaction(void) ATTR_ALWAYS_INLINE;
			static inline void Endpoint_StallTransaction(void)
			{
				UECONX |= (1 << STALLRQ);
    370c:	eb ee       	ldi	r30, 0xEB	; 235
    370e:	f0 e0       	ldi	r31, 0x00	; 0
    3710:	80 81       	ld	r24, Z
    3712:	80 62       	ori	r24, 0x20	; 32
    3714:	80 83       	st	Z, r24
    3716:	13 c0       	rjmp	.+38     	; 0x373e <USB_Device_ProcessControlRequest+0x126>
			 *  \ingroup Group_EndpointPacketManagement_AVR8
			 */
			static inline void Endpoint_ClearStall(void) ATTR_ALWAYS_INLINE;
			static inline void Endpoint_ClearStall(void)
			{
				UECONX |= (1 << STALLRQC);
    3718:	eb ee       	ldi	r30, 0xEB	; 235
    371a:	f0 e0       	ldi	r31, 0x00	; 0
    371c:	80 81       	ld	r24, Z
    371e:	80 61       	ori	r24, 0x10	; 16
    3720:	80 83       	st	Z, r24
			 *  \param[in] Address  Endpoint address whose FIFO buffers are to be reset.
			 */
			static inline void Endpoint_ResetEndpoint(const uint8_t Address) ATTR_ALWAYS_INLINE;
			static inline void Endpoint_ResetEndpoint(const uint8_t Address)
			{
				UERST = (1 << (Address & ENDPOINT_EPNUM_MASK));
    3722:	81 e0       	ldi	r24, 0x01	; 1
    3724:	90 e0       	ldi	r25, 0x00	; 0
    3726:	02 c0       	rjmp	.+4      	; 0x372c <USB_Device_ProcessControlRequest+0x114>
    3728:	88 0f       	add	r24, r24
    372a:	99 1f       	adc	r25, r25
    372c:	2a 95       	dec	r18
    372e:	e2 f7       	brpl	.-8      	; 0x3728 <USB_Device_ProcessControlRequest+0x110>
    3730:	aa ee       	ldi	r26, 0xEA	; 234
    3732:	b0 e0       	ldi	r27, 0x00	; 0
    3734:	8c 93       	st	X, r24
				UERST = 0;
    3736:	1c 92       	st	X, r1

			/** Resets the data toggle of the currently selected endpoint. */
			static inline void Endpoint_ResetDataToggle(void) ATTR_ALWAYS_INLINE;
			static inline void Endpoint_ResetDataToggle(void)
			{
				UECONX |= (1 << RSTDT);
    3738:	80 81       	ld	r24, Z
    373a:	88 60       	ori	r24, 0x08	; 8
    373c:	80 83       	st	Z, r24
			 */
			static inline void Endpoint_SelectEndpoint(const uint8_t Address) ATTR_ALWAYS_INLINE;
			static inline void Endpoint_SelectEndpoint(const uint8_t Address)
			{
				#if !defined(CONTROL_ONLY_DEVICE)
					UENUM = (Address & ENDPOINT_EPNUM_MASK);
    373e:	10 92 e9 00 	sts	0x00E9, r1
			 *  \note This is not applicable for non CONTROL type endpoints.
			 */
			static inline void Endpoint_ClearSETUP(void) ATTR_ALWAYS_INLINE;
			static inline void Endpoint_ClearSETUP(void)
			{
				UEINTX &= ~(1 << RXSTPI);
    3742:	e8 ee       	ldi	r30, 0xE8	; 232
    3744:	f0 e0       	ldi	r31, 0x00	; 0
    3746:	80 81       	ld	r24, Z
    3748:	87 7f       	andi	r24, 0xF7	; 247
    374a:	80 83       	st	Z, r24

	Endpoint_SelectEndpoint(ENDPOINT_CONTROLEP);

	Endpoint_ClearSETUP();

	Endpoint_ClearStatusStage();
    374c:	de dd       	rcall	.-1092   	; 0x330a <Endpoint_ClearStatusStage>
    374e:	ae c0       	rjmp	.+348    	; 0x38ac <USB_Device_ProcessControlRequest+0x294>
					USB_Device_ClearSetFeature();
				}

				break;
			case REQ_SetAddress:
				if (bmRequestType == (REQDIR_HOSTTODEVICE | REQTYPE_STANDARD | REQREC_DEVICE))
    3750:	91 11       	cpse	r25, r1
    3752:	ac c0       	rjmp	.+344    	; 0x38ac <USB_Device_ProcessControlRequest+0x294>
	}
}

static void USB_Device_SetAddress(void)
{
	uint8_t DeviceAddress = (USB_ControlRequest.wValue & 0x7F);
    3754:	10 91 0a 07 	lds	r17, 0x070A
    3758:	1f 77       	andi	r17, 0x7F	; 127
			#endif

			static inline void USB_Device_SetDeviceAddress(const uint8_t Address) ATTR_ALWAYS_INLINE;
			static inline void USB_Device_SetDeviceAddress(const uint8_t Address)
			{
				UDADDR = (UDADDR & (1 << ADDEN)) | (Address & 0x7F);
    375a:	e3 ee       	ldi	r30, 0xE3	; 227
    375c:	f0 e0       	ldi	r31, 0x00	; 0
    375e:	80 81       	ld	r24, Z
    3760:	80 78       	andi	r24, 0x80	; 128
    3762:	81 2b       	or	r24, r17
    3764:	80 83       	st	Z, r24
    3766:	e8 ee       	ldi	r30, 0xE8	; 232
    3768:	f0 e0       	ldi	r31, 0x00	; 0
    376a:	80 81       	ld	r24, Z
    376c:	87 7f       	andi	r24, 0xF7	; 247
    376e:	80 83       	st	Z, r24

	USB_Device_SetDeviceAddress(DeviceAddress);

	Endpoint_ClearSETUP();

	Endpoint_ClearStatusStage();
    3770:	cc dd       	rcall	.-1128   	; 0x330a <Endpoint_ClearStatusStage>
			 *  \return Boolean \c true if the current endpoint is ready for an IN packet, \c false otherwise.
			 */
			static inline bool Endpoint_IsINReady(void) ATTR_WARN_UNUSED_RESULT ATTR_ALWAYS_INLINE;
			static inline bool Endpoint_IsINReady(void)
			{
				return ((UEINTX & (1 << TXINI)) ? true : false);
    3772:	e8 ee       	ldi	r30, 0xE8	; 232
    3774:	f0 e0       	ldi	r31, 0x00	; 0
    3776:	80 81       	ld	r24, Z

	while (!(Endpoint_IsINReady()));
    3778:	80 ff       	sbrs	r24, 0
    377a:	fd cf       	rjmp	.-6      	; 0x3776 <USB_Device_ProcessControlRequest+0x15e>
			static inline void USB_Device_EnableDeviceAddress(const uint8_t Address) ATTR_ALWAYS_INLINE;
			static inline void USB_Device_EnableDeviceAddress(const uint8_t Address)
			{
				(void)Address;

				UDADDR |= (1 << ADDEN);
    377c:	e3 ee       	ldi	r30, 0xE3	; 227
    377e:	f0 e0       	ldi	r31, 0x00	; 0
    3780:	80 81       	ld	r24, Z
    3782:	80 68       	ori	r24, 0x80	; 128
    3784:	80 83       	st	Z, r24

	USB_Device_EnableDeviceAddress(DeviceAddress);

	USB_DeviceState = (DeviceAddress) ? DEVICE_STATE_Addressed : DEVICE_STATE_Default;
    3786:	11 23       	and	r17, r17
    3788:	11 f0       	breq	.+4      	; 0x378e <USB_Device_ProcessControlRequest+0x176>
    378a:	83 e0       	ldi	r24, 0x03	; 3
    378c:	01 c0       	rjmp	.+2      	; 0x3790 <USB_Device_ProcessControlRequest+0x178>
    378e:	82 e0       	ldi	r24, 0x02	; 2
    3790:	80 93 07 07 	sts	0x0707, r24
    3794:	8b c0       	rjmp	.+278    	; 0x38ac <USB_Device_ProcessControlRequest+0x294>
				if (bmRequestType == (REQDIR_HOSTTODEVICE | REQTYPE_STANDARD | REQREC_DEVICE))
				  USB_Device_SetAddress();

				break;
			case REQ_GetDescriptor:
				if ((bmRequestType == (REQDIR_DEVICETOHOST | REQTYPE_STANDARD | REQREC_DEVICE)) ||
    3796:	90 58       	subi	r25, 0x80	; 128
    3798:	92 30       	cpi	r25, 0x02	; 2
    379a:	08 f0       	brcs	.+2      	; 0x379e <USB_Device_ProcessControlRequest+0x186>
    379c:	87 c0       	rjmp	.+270    	; 0x38ac <USB_Device_ProcessControlRequest+0x294>
	    !(defined(USE_FLASH_DESCRIPTORS) || defined(USE_EEPROM_DESCRIPTORS) || defined(USE_RAM_DESCRIPTORS))
	uint8_t DescriptorAddressSpace;
	#endif

	#if !defined(NO_INTERNAL_SERIAL) && (USE_INTERNAL_SERIAL != NO_DESCRIPTOR)
	if (USB_ControlRequest.wValue == ((DTYPE_String << 8) | USE_INTERNAL_SERIAL))
    379e:	80 91 0a 07 	lds	r24, 0x070A
    37a2:	90 91 0b 07 	lds	r25, 0x070B
    37a6:	8c 3d       	cpi	r24, 0xDC	; 220
    37a8:	23 e0       	ldi	r18, 0x03	; 3
    37aa:	92 07       	cpc	r25, r18
    37ac:	99 f5       	brne	.+102    	; 0x3814 <USB_Device_ProcessControlRequest+0x1fc>
	{
		USB_Descriptor_Header_t Header;
		uint16_t                UnicodeString[INTERNAL_SERIAL_LENGTH_BITS / 4];
	} SignatureDescriptor;

	SignatureDescriptor.Header.Type = DTYPE_String;
    37ae:	83 e0       	ldi	r24, 0x03	; 3
    37b0:	8a 83       	std	Y+2, r24	; 0x02
	SignatureDescriptor.Header.Size = USB_STRING_LEN(INTERNAL_SERIAL_LENGTH_BITS / 4);
    37b2:	8a e2       	ldi	r24, 0x2A	; 42
    37b4:	89 83       	std	Y+1, r24	; 0x01
			static inline uint_reg_t GetGlobalInterruptMask(void)
			{
				GCC_MEMORY_BARRIER();

				#if (ARCH == ARCH_AVR8)
				return SREG;
    37b6:	5f b7       	in	r21, 0x3f	; 63
			static inline void GlobalInterruptDisable(void)
			{
				GCC_MEMORY_BARRIER();

				#if (ARCH == ARCH_AVR8)
				cli();
    37b8:	f8 94       	cli
				__builtin_ssrf(AVR32_SR_GM_OFFSET);
				#elif (ARCH == ARCH_XMEGA)
				cli();
				#endif

				GCC_MEMORY_BARRIER();
    37ba:	de 01       	movw	r26, r28
    37bc:	13 96       	adiw	r26, 0x03	; 3
				uint_reg_t CurrentGlobalInt = GetGlobalInterruptMask();
				GlobalInterruptDisable();

				uint8_t SigReadAddress = INTERNAL_SERIAL_START_ADDRESS;

				for (uint8_t SerialCharNum = 0; SerialCharNum < (INTERNAL_SERIAL_LENGTH_BITS / 4); SerialCharNum++)
    37be:	20 e0       	ldi	r18, 0x00	; 0
			static inline void USB_Device_GetSerialString(uint16_t* const UnicodeString)
			{
				uint_reg_t CurrentGlobalInt = GetGlobalInterruptMask();
				GlobalInterruptDisable();

				uint8_t SigReadAddress = INTERNAL_SERIAL_START_ADDRESS;
    37c0:	3e e0       	ldi	r19, 0x0E	; 14

				for (uint8_t SerialCharNum = 0; SerialCharNum < (INTERNAL_SERIAL_LENGTH_BITS / 4); SerialCharNum++)
				{
					uint8_t SerialByte = boot_signature_byte_get(SigReadAddress);
    37c2:	41 e2       	ldi	r20, 0x21	; 33
    37c4:	e3 2f       	mov	r30, r19
    37c6:	f0 e0       	ldi	r31, 0x00	; 0
    37c8:	40 93 57 00 	sts	0x0057, r20
    37cc:	84 91       	lpm	r24, Z

					if (SerialCharNum & 0x01)
    37ce:	20 ff       	sbrs	r18, 0
    37d0:	03 c0       	rjmp	.+6      	; 0x37d8 <USB_Device_ProcessControlRequest+0x1c0>
					{
						SerialByte >>= 4;
    37d2:	82 95       	swap	r24
    37d4:	8f 70       	andi	r24, 0x0F	; 15
						SigReadAddress++;
    37d6:	3f 5f       	subi	r19, 0xFF	; 255
					}

					SerialByte &= 0x0F;
    37d8:	8f 70       	andi	r24, 0x0F	; 15

					UnicodeString[SerialCharNum] = cpu_to_le16((SerialByte >= 10) ?
    37da:	8a 30       	cpi	r24, 0x0A	; 10
    37dc:	18 f0       	brcs	.+6      	; 0x37e4 <USB_Device_ProcessControlRequest+0x1cc>
    37de:	90 e0       	ldi	r25, 0x00	; 0
    37e0:	c7 96       	adiw	r24, 0x37	; 55
    37e2:	02 c0       	rjmp	.+4      	; 0x37e8 <USB_Device_ProcessControlRequest+0x1d0>
    37e4:	90 e0       	ldi	r25, 0x00	; 0
    37e6:	c0 96       	adiw	r24, 0x30	; 48
    37e8:	8d 93       	st	X+, r24
    37ea:	9d 93       	st	X+, r25
				uint_reg_t CurrentGlobalInt = GetGlobalInterruptMask();
				GlobalInterruptDisable();

				uint8_t SigReadAddress = INTERNAL_SERIAL_START_ADDRESS;

				for (uint8_t SerialCharNum = 0; SerialCharNum < (INTERNAL_SERIAL_LENGTH_BITS / 4); SerialCharNum++)
    37ec:	2f 5f       	subi	r18, 0xFF	; 255
    37ee:	24 31       	cpi	r18, 0x14	; 20
    37f0:	49 f7       	brne	.-46     	; 0x37c4 <USB_Device_ProcessControlRequest+0x1ac>
			static inline void SetGlobalInterruptMask(const uint_reg_t GlobalIntState)
			{
				GCC_MEMORY_BARRIER();

				#if (ARCH == ARCH_AVR8)
				SREG = GlobalIntState;
    37f2:	5f bf       	out	0x3f, r21	; 63
			 *  \note This is not applicable for non CONTROL type endpoints.
			 */
			static inline void Endpoint_ClearSETUP(void) ATTR_ALWAYS_INLINE;
			static inline void Endpoint_ClearSETUP(void)
			{
				UEINTX &= ~(1 << RXSTPI);
    37f4:	08 ee       	ldi	r16, 0xE8	; 232
    37f6:	10 e0       	ldi	r17, 0x00	; 0
    37f8:	f8 01       	movw	r30, r16
    37fa:	80 81       	ld	r24, Z
    37fc:	87 7f       	andi	r24, 0xF7	; 247
    37fe:	80 83       	st	Z, r24

	USB_Device_GetSerialString(SignatureDescriptor.UnicodeString);

	Endpoint_ClearSETUP();

	Endpoint_Write_Control_Stream_LE(&SignatureDescriptor, sizeof(SignatureDescriptor));
    3800:	6a e2       	ldi	r22, 0x2A	; 42
    3802:	70 e0       	ldi	r23, 0x00	; 0
    3804:	ce 01       	movw	r24, r28
    3806:	01 96       	adiw	r24, 0x01	; 1
    3808:	b5 db       	rcall	.-2198   	; 0x2f74 <Endpoint_Write_Control_Stream_LE>
			 */
			static inline void Endpoint_ClearOUT(void) ATTR_ALWAYS_INLINE;
			static inline void Endpoint_ClearOUT(void)
			{
				#if !defined(CONTROL_ONLY_DEVICE)
					UEINTX &= ~((1 << RXOUTI) | (1 << FIFOCON));
    380a:	f8 01       	movw	r30, r16
    380c:	80 81       	ld	r24, Z
    380e:	8b 77       	andi	r24, 0x7B	; 123
    3810:	80 83       	st	Z, r24
    3812:	4c c0       	rjmp	.+152    	; 0x38ac <USB_Device_ProcessControlRequest+0x294>
		USB_Device_GetInternalSerialDescriptor();
		return;
	}
	#endif

	if ((DescriptorSize = CALLBACK_USB_GetDescriptor(USB_ControlRequest.wValue, USB_ControlRequest.wIndex,
    3814:	ae 01       	movw	r20, r28
    3816:	4f 5f       	subi	r20, 0xFF	; 255
    3818:	5f 4f       	sbci	r21, 0xFF	; 255
    381a:	60 91 0c 07 	lds	r22, 0x070C
    381e:	0e 94 c5 0c 	call	0x198a	; 0x198a <CALLBACK_USB_GetDescriptor>
    3822:	00 97       	sbiw	r24, 0x00	; 0
    3824:	09 f4       	brne	.+2      	; 0x3828 <USB_Device_ProcessControlRequest+0x210>
    3826:	42 c0       	rjmp	.+132    	; 0x38ac <USB_Device_ProcessControlRequest+0x294>
			 *  \note This is not applicable for non CONTROL type endpoints.
			 */
			static inline void Endpoint_ClearSETUP(void) ATTR_ALWAYS_INLINE;
			static inline void Endpoint_ClearSETUP(void)
			{
				UEINTX &= ~(1 << RXSTPI);
    3828:	08 ee       	ldi	r16, 0xE8	; 232
    382a:	10 e0       	ldi	r17, 0x00	; 0
    382c:	f8 01       	movw	r30, r16
    382e:	20 81       	ld	r18, Z
    3830:	27 7f       	andi	r18, 0xF7	; 247
    3832:	20 83       	st	Z, r18
	#if defined(USE_RAM_DESCRIPTORS) || !defined(ARCH_HAS_MULTI_ADDRESS_SPACE)
	Endpoint_Write_Control_Stream_LE(DescriptorPointer, DescriptorSize);
	#elif defined(USE_EEPROM_DESCRIPTORS)
	Endpoint_Write_Control_EStream_LE(DescriptorPointer, DescriptorSize);
	#elif defined(USE_FLASH_DESCRIPTORS)
	Endpoint_Write_Control_PStream_LE(DescriptorPointer, DescriptorSize);
    3834:	bc 01       	movw	r22, r24
    3836:	89 81       	ldd	r24, Y+1	; 0x01
    3838:	9a 81       	ldd	r25, Y+2	; 0x02
    383a:	21 dc       	rcall	.-1982   	; 0x307e <Endpoint_Write_Control_PStream_LE>
			 */
			static inline void Endpoint_ClearOUT(void) ATTR_ALWAYS_INLINE;
			static inline void Endpoint_ClearOUT(void)
			{
				#if !defined(CONTROL_ONLY_DEVICE)
					UEINTX &= ~((1 << RXOUTI) | (1 << FIFOCON));
    383c:	f8 01       	movw	r30, r16
    383e:	80 81       	ld	r24, Z
    3840:	8b 77       	andi	r24, 0x7B	; 123
    3842:	80 83       	st	Z, r24
    3844:	33 c0       	rjmp	.+102    	; 0x38ac <USB_Device_ProcessControlRequest+0x294>
					USB_Device_GetDescriptor();
				}

				break;
			case REQ_GetConfiguration:
				if (bmRequestType == (REQDIR_DEVICETOHOST | REQTYPE_STANDARD | REQREC_DEVICE))
    3846:	90 38       	cpi	r25, 0x80	; 128
    3848:	89 f5       	brne	.+98     	; 0x38ac <USB_Device_ProcessControlRequest+0x294>
			 *  \note This is not applicable for non CONTROL type endpoints.
			 */
			static inline void Endpoint_ClearSETUP(void) ATTR_ALWAYS_INLINE;
			static inline void Endpoint_ClearSETUP(void)
			{
				UEINTX &= ~(1 << RXSTPI);
    384a:	e8 ee       	ldi	r30, 0xE8	; 232
    384c:	f0 e0       	ldi	r31, 0x00	; 0
    384e:	80 81       	ld	r24, Z
    3850:	87 7f       	andi	r24, 0xF7	; 247
    3852:	80 83       	st	Z, r24

static void USB_Device_GetConfiguration(void)
{
	Endpoint_ClearSETUP();

	Endpoint_Write_8(USB_Device_ConfigurationNumber);
    3854:	80 91 03 07 	lds	r24, 0x0703
			 *  \param[in] Data  Data to write into the the currently selected endpoint's FIFO buffer.
			 */
			static inline void Endpoint_Write_8(const uint8_t Data) ATTR_ALWAYS_INLINE;
			static inline void Endpoint_Write_8(const uint8_t Data)
			{
				UEDATX = Data;
    3858:	80 93 f1 00 	sts	0x00F1, r24
			 */
			static inline void Endpoint_ClearIN(void) ATTR_ALWAYS_INLINE;
			static inline void Endpoint_ClearIN(void)
			{
				#if !defined(CONTROL_ONLY_DEVICE)
					UEINTX &= ~((1 << TXINI) | (1 << FIFOCON));
    385c:	80 81       	ld	r24, Z
    385e:	8e 77       	andi	r24, 0x7E	; 126
    3860:	80 83       	st	Z, r24
	Endpoint_ClearIN();

	Endpoint_ClearStatusStage();
    3862:	53 dd       	rcall	.-1370   	; 0x330a <Endpoint_ClearStatusStage>
    3864:	23 c0       	rjmp	.+70     	; 0x38ac <USB_Device_ProcessControlRequest+0x294>
				if (bmRequestType == (REQDIR_DEVICETOHOST | REQTYPE_STANDARD | REQREC_DEVICE))
				  USB_Device_GetConfiguration();

				break;
			case REQ_SetConfiguration:
				if (bmRequestType == (REQDIR_HOSTTODEVICE | REQTYPE_STANDARD | REQREC_DEVICE))
    3866:	91 11       	cpse	r25, r1
    3868:	21 c0       	rjmp	.+66     	; 0x38ac <USB_Device_ProcessControlRequest+0x294>
}

static void USB_Device_SetConfiguration(void)
{
	#if defined(FIXED_NUM_CONFIGURATIONS)
	if ((uint8_t)USB_ControlRequest.wValue > FIXED_NUM_CONFIGURATIONS)
    386a:	80 91 0a 07 	lds	r24, 0x070A
    386e:	82 30       	cpi	r24, 0x02	; 2
    3870:	e8 f4       	brcc	.+58     	; 0x38ac <USB_Device_ProcessControlRequest+0x294>
			 *  \note This is not applicable for non CONTROL type endpoints.
			 */
			static inline void Endpoint_ClearSETUP(void) ATTR_ALWAYS_INLINE;
			static inline void Endpoint_ClearSETUP(void)
			{
				UEINTX &= ~(1 << RXSTPI);
    3872:	e8 ee       	ldi	r30, 0xE8	; 232
    3874:	f0 e0       	ldi	r31, 0x00	; 0
    3876:	80 81       	ld	r24, Z
    3878:	87 7f       	andi	r24, 0xF7	; 247
    387a:	80 83       	st	Z, r24
	#endif
	#endif

	Endpoint_ClearSETUP();

	USB_Device_ConfigurationNumber = (uint8_t)USB_ControlRequest.wValue;
    387c:	80 91 0a 07 	lds	r24, 0x070A
    3880:	80 93 03 07 	sts	0x0703, r24

	Endpoint_ClearStatusStage();
    3884:	42 dd       	rcall	.-1404   	; 0x330a <Endpoint_ClearStatusStage>

	if (USB_Device_ConfigurationNumber)
    3886:	80 91 03 07 	lds	r24, 0x0703
    388a:	88 23       	and	r24, r24
    388c:	21 f0       	breq	.+8      	; 0x3896 <USB_Device_ProcessControlRequest+0x27e>
	  USB_DeviceState = DEVICE_STATE_Configured;
    388e:	84 e0       	ldi	r24, 0x04	; 4
    3890:	80 93 07 07 	sts	0x0707, r24
    3894:	09 c0       	rjmp	.+18     	; 0x38a8 <USB_Device_ProcessControlRequest+0x290>
			}

			static inline bool USB_Device_IsAddressSet(void) ATTR_ALWAYS_INLINE ATTR_WARN_UNUSED_RESULT;
			static inline bool USB_Device_IsAddressSet(void)
			{
				return (UDADDR & (1 << ADDEN));
    3896:	80 91 e3 00 	lds	r24, 0x00E3
	else
	  USB_DeviceState = (USB_Device_IsAddressSet()) ? DEVICE_STATE_Configured : DEVICE_STATE_Powered;
    389a:	88 23       	and	r24, r24
    389c:	14 f4       	brge	.+4      	; 0x38a2 <USB_Device_ProcessControlRequest+0x28a>
    389e:	84 e0       	ldi	r24, 0x04	; 4
    38a0:	01 c0       	rjmp	.+2      	; 0x38a4 <USB_Device_ProcessControlRequest+0x28c>
    38a2:	81 e0       	ldi	r24, 0x01	; 1
    38a4:	80 93 07 07 	sts	0x0707, r24

	EVENT_USB_Device_ConfigurationChanged();
    38a8:	0e 94 1e 0d 	call	0x1a3c	; 0x1a3c <EVENT_USB_Device_ConfigurationChanged>
			 *  \return Boolean \c true if the selected endpoint has received a SETUP packet, \c false otherwise.
			 */
			static inline bool Endpoint_IsSETUPReceived(void) ATTR_WARN_UNUSED_RESULT ATTR_ALWAYS_INLINE;
			static inline bool Endpoint_IsSETUPReceived(void)
			{
				return ((UEINTX & (1 << RXSTPI)) ? true : false);
    38ac:	80 91 e8 00 	lds	r24, 0x00E8
			default:
				break;
		}
	}

	if (Endpoint_IsSETUPReceived())
    38b0:	83 ff       	sbrs	r24, 3
    38b2:	16 c0       	rjmp	.+44     	; 0x38e0 <USB_Device_ProcessControlRequest+0x2c8>
			 *  \note This is not applicable for non CONTROL type endpoints.
			 */
			static inline void Endpoint_ClearSETUP(void) ATTR_ALWAYS_INLINE;
			static inline void Endpoint_ClearSETUP(void)
			{
				UEINTX &= ~(1 << RXSTPI);
    38b4:	e8 ee       	ldi	r30, 0xE8	; 232
    38b6:	f0 e0       	ldi	r31, 0x00	; 0
    38b8:	80 81       	ld	r24, Z
    38ba:	87 7f       	andi	r24, 0xF7	; 247
    38bc:	80 83       	st	Z, r24
			 *  \ingroup Group_EndpointPacketManagement_AVR8
			 */
			static inline void Endpoint_StallTransaction(void) ATTR_ALWAYS_INLINE;
			static inline void Endpoint_StallTransaction(void)
			{
				UECONX |= (1 << STALLRQ);
    38be:	eb ee       	ldi	r30, 0xEB	; 235
    38c0:	f0 e0       	ldi	r31, 0x00	; 0
    38c2:	80 81       	ld	r24, Z
    38c4:	80 62       	ori	r24, 0x20	; 32
    38c6:	80 83       	st	Z, r24
    38c8:	0b c0       	rjmp	.+22     	; 0x38e0 <USB_Device_ProcessControlRequest+0x2c8>
{
	switch (USB_ControlRequest.bmRequestType & CONTROL_REQTYPE_RECIPIENT)
	{
		#if !defined(NO_DEVICE_REMOTE_WAKEUP)
		case REQREC_DEVICE:
			if ((uint8_t)USB_ControlRequest.wValue == FEATURE_SEL_DeviceRemoteWakeup)
    38ca:	90 91 0a 07 	lds	r25, 0x070A
    38ce:	91 30       	cpi	r25, 0x01	; 1
    38d0:	69 f7       	brne	.-38     	; 0x38ac <USB_Device_ProcessControlRequest+0x294>
    38d2:	06 cf       	rjmp	.-500    	; 0x36e0 <USB_Device_ProcessControlRequest+0xc8>

			break;
		#endif
		#if !defined(CONTROL_ONLY_DEVICE)
		case REQREC_ENDPOINT:
			if ((uint8_t)USB_ControlRequest.wValue == FEATURE_SEL_EndpointHalt)
    38d4:	80 91 0a 07 	lds	r24, 0x070A
    38d8:	88 23       	and	r24, r24
    38da:	09 f4       	brne	.+2      	; 0x38de <USB_Device_ProcessControlRequest+0x2c6>
    38dc:	08 cf       	rjmp	.-496    	; 0x36ee <USB_Device_ProcessControlRequest+0xd6>
    38de:	2f cf       	rjmp	.-418    	; 0x373e <USB_Device_ProcessControlRequest+0x126>
	if (Endpoint_IsSETUPReceived())
	{
		Endpoint_ClearSETUP();
		Endpoint_StallTransaction();
	}
}
    38e0:	aa 96       	adiw	r28, 0x2a	; 42
    38e2:	0f b6       	in	r0, 0x3f	; 63
    38e4:	f8 94       	cli
    38e6:	de bf       	out	0x3e, r29	; 62
    38e8:	0f be       	out	0x3f, r0	; 63
    38ea:	cd bf       	out	0x3d, r28	; 61
    38ec:	df 91       	pop	r29
    38ee:	cf 91       	pop	r28
    38f0:	1f 91       	pop	r17
    38f2:	0f 91       	pop	r16
    38f4:	08 95       	ret

000038f6 <USB_Event_Stub>:
#define  __INCLUDE_FROM_EVENTS_C
#define  __INCLUDE_FROM_USB_DRIVER
#include "Events.h"

void USB_Event_Stub(void)
{
    38f6:	08 95       	ret

000038f8 <USB_USBTask>:
#if defined(USB_CAN_BE_DEVICE) && !defined(DEVICE_STATE_AS_GPIOR)
volatile uint8_t     USB_DeviceState;
#endif

void USB_USBTask(void)
{
    38f8:	cf 93       	push	r28
}

#if defined(USB_CAN_BE_DEVICE)
static void USB_DeviceTask(void)
{
	if (USB_DeviceState == DEVICE_STATE_Unattached)
    38fa:	80 91 07 07 	lds	r24, 0x0707
    38fe:	88 23       	and	r24, r24
    3900:	a1 f0       	breq	.+40     	; 0x392a <USB_USBTask+0x32>
			 */
			static inline uint8_t Endpoint_GetCurrentEndpoint(void) ATTR_WARN_UNUSED_RESULT ATTR_ALWAYS_INLINE;
			static inline uint8_t Endpoint_GetCurrentEndpoint(void)
			{
				#if !defined(CONTROL_ONLY_DEVICE)
					return ((UENUM & ENDPOINT_EPNUM_MASK) | Endpoint_GetEndpointDirection());
    3902:	c0 91 e9 00 	lds	r28, 0x00E9
    3906:	cf 70       	andi	r28, 0x0F	; 15
			 *  \return The currently selected endpoint's direction, as a \c ENDPOINT_DIR_* mask.
			 */
			static inline uint8_t Endpoint_GetEndpointDirection(void) ATTR_WARN_UNUSED_RESULT ATTR_ALWAYS_INLINE;
			static inline uint8_t Endpoint_GetEndpointDirection(void)
			{
				return (UECFG0X & (1 << EPDIR)) ? ENDPOINT_DIR_IN : ENDPOINT_DIR_OUT;
    3908:	80 91 ec 00 	lds	r24, 0x00EC
    390c:	80 ff       	sbrs	r24, 0
    390e:	02 c0       	rjmp	.+4      	; 0x3914 <USB_USBTask+0x1c>
    3910:	80 e8       	ldi	r24, 0x80	; 128
    3912:	01 c0       	rjmp	.+2      	; 0x3916 <USB_USBTask+0x1e>
    3914:	80 e0       	ldi	r24, 0x00	; 0
			 */
			static inline uint8_t Endpoint_GetCurrentEndpoint(void) ATTR_WARN_UNUSED_RESULT ATTR_ALWAYS_INLINE;
			static inline uint8_t Endpoint_GetCurrentEndpoint(void)
			{
				#if !defined(CONTROL_ONLY_DEVICE)
					return ((UENUM & ENDPOINT_EPNUM_MASK) | Endpoint_GetEndpointDirection());
    3916:	c8 2b       	or	r28, r24
			 */
			static inline void Endpoint_SelectEndpoint(const uint8_t Address) ATTR_ALWAYS_INLINE;
			static inline void Endpoint_SelectEndpoint(const uint8_t Address)
			{
				#if !defined(CONTROL_ONLY_DEVICE)
					UENUM = (Address & ENDPOINT_EPNUM_MASK);
    3918:	10 92 e9 00 	sts	0x00E9, r1
			 *  \return Boolean \c true if the selected endpoint has received a SETUP packet, \c false otherwise.
			 */
			static inline bool Endpoint_IsSETUPReceived(void) ATTR_WARN_UNUSED_RESULT ATTR_ALWAYS_INLINE;
			static inline bool Endpoint_IsSETUPReceived(void)
			{
				return ((UEINTX & (1 << RXSTPI)) ? true : false);
    391c:	80 91 e8 00 	lds	r24, 0x00E8

	uint8_t PrevEndpoint = Endpoint_GetCurrentEndpoint();

	Endpoint_SelectEndpoint(ENDPOINT_CONTROLEP);

	if (Endpoint_IsSETUPReceived())
    3920:	83 fd       	sbrc	r24, 3
	  USB_Device_ProcessControlRequest();
    3922:	7a de       	rcall	.-780    	; 0x3618 <USB_Device_ProcessControlRequest>
			 */
			static inline void Endpoint_SelectEndpoint(const uint8_t Address) ATTR_ALWAYS_INLINE;
			static inline void Endpoint_SelectEndpoint(const uint8_t Address)
			{
				#if !defined(CONTROL_ONLY_DEVICE)
					UENUM = (Address & ENDPOINT_EPNUM_MASK);
    3924:	cf 70       	andi	r28, 0x0F	; 15
    3926:	c0 93 e9 00 	sts	0x00E9, r28
	#elif defined(USB_CAN_BE_HOST)
		USB_HostTask();
	#elif defined(USB_CAN_BE_DEVICE)
		USB_DeviceTask();
	#endif
}
    392a:	cf 91       	pop	r28
    392c:	08 95       	ret

0000392e <__eerd_byte_m32u4>:
    392e:	f9 99       	sbic	0x1f, 1	; 31
    3930:	fe cf       	rjmp	.-4      	; 0x392e <__eerd_byte_m32u4>
    3932:	92 bd       	out	0x22, r25	; 34
    3934:	81 bd       	out	0x21, r24	; 33
    3936:	f8 9a       	sbi	0x1f, 0	; 31
    3938:	99 27       	eor	r25, r25
    393a:	80 b5       	in	r24, 0x20	; 32
    393c:	08 95       	ret

0000393e <__eewr_byte_m32u4>:
    393e:	26 2f       	mov	r18, r22

00003940 <__eewr_r18_m32u4>:
    3940:	f9 99       	sbic	0x1f, 1	; 31
    3942:	fe cf       	rjmp	.-4      	; 0x3940 <__eewr_r18_m32u4>
    3944:	1f ba       	out	0x1f, r1	; 31
    3946:	92 bd       	out	0x22, r25	; 34
    3948:	81 bd       	out	0x21, r24	; 33
    394a:	20 bd       	out	0x20, r18	; 32
    394c:	0f b6       	in	r0, 0x3f	; 63
    394e:	f8 94       	cli
    3950:	fa 9a       	sbi	0x1f, 2	; 31
    3952:	f9 9a       	sbi	0x1f, 1	; 31
    3954:	0f be       	out	0x3f, r0	; 63
    3956:	01 96       	adiw	r24, 0x01	; 1
    3958:	08 95       	ret

0000395a <_exit>:
    395a:	f8 94       	cli

0000395c <__stop_program>:
    395c:	ff cf       	rjmp	.-2      	; 0x395c <__stop_program>
